(i__main__
PlayersProvider
p0
(dp1
S'players'
p2
(dp3
VDeonte Thompson
p4
(i__main__
Player
p5
(dp6
S'properties'
p7
(lp8
VWR
p9
ag4
aV86788
p10
aV6
p11
aV1000
p12
aV4500
p13
aI0
aI0
aI00
aI0
aV
p14
aVold
p15
ag14
asS'uniqid'
p16
V22959
p17
sbsVChris Ogbonnaya
p18
(i__main__
Player
p19
(dp20
g7
(lp21
VRB
p22
ag18
aV86796
p23
aV17
p24
aV1000
p25
aV4900
p26
aF2.2
aV5
p27
aI00
aI2
ag14
aVrecent
p28
aVinactive
p29
asg16
V10382
p30
sbsVRashad Jennings
p31
(i__main__
Player
p32
(dp33
g7
(lp34
VRB
p35
ag31
aV86796
p36
aV17
p37
aV1000
p38
aV7200
p39
aF12.9
aV9
p40
aI00
aI2
aVAnkle
p41
aVbreaking
p42
aVprobable
p43
asg16
V8052
p44
sbsVGolden Tate
p45
(i__main__
Player
p46
(dp47
g7
(lp48
VWR
p49
ag45
aV86792
p50
aV24
p51
aV1000
p52
aV7500
p53
aF13.9
aV13
p54
aI00
aI4
ag14
aVbreaking
p55
ag14
asg16
V11485
p56
sbsVSenorise Perry
p57
(i__main__
Player
p58
(dp59
g7
(lp60
VRB
p61
ag57
aV86801
p62
aV22
p63
aV1000
p64
aV4500
p65
aI0
aV13
p66
aI00
aI0
ag14
aVold
p67
ag14
asg16
V33320
p68
sbsVJeff Janis
p69
(i__main__
Player
p70
(dp71
g7
(lp72
VWR
p73
ag69
aV86910
p74
aV23
p75
aV1000
p76
aV4500
p77
aF0.9
aV3
p78
aI00
aI0
ag14
aVold
p79
ag14
asg16
V54623
p80
sbsVLevine Toilolo
p81
(i__main__
Player
p82
(dp83
g7
(lp84
VTE
p85
ag81
aV86910
p86
aV27
p87
aV1000
p88
aV5000
p89
aF3.5
aV12
p90
aI00
aI4
ag14
aVrecent
p91
ag14
asg16
V29725
p92
sbsVJeremy Ross
p93
(i__main__
Player
p94
(dp95
g7
(lp96
VWR
p97
ag93
aV86792
p98
aV24
p99
aV1000
p100
aV4500
p101
aF3.2
aV13
p102
aI00
aI0
ag14
aVold
p103
ag14
asg16
V14837
p104
sbsVDetroit Lions
p105
(i__main__
Player
p106
(dp107
g7
(lp108
VD
p109
ag105
aV86792
p110
aV24
p111
aV1000
p112
aV5400
p113
aI0
aI0
aI00
aI4
ag14
aVnone
p114
ag14
asg16
V12532
p115
sbsVMartavis Bryant
p116
(i__main__
Player
p117
(dp118
g7
(lp119
VWR
p120
ag116
aV86787
p121
aV5
p122
aV1000
p123
aV6800
p124
aI14
aV7
p125
aI00
aI0
ag14
aVbreaking
p126
ag14
asg16
V24675
p127
sbsVTavon Austin
p128
(i__main__
Player
p129
(dp130
g7
(lp131
VWR
p132
ag128
aV86786
p133
aV32
p134
aV1000
p135
aV5300
p136
aF5.8
aV12
p137
aI00
aI6
aVBack
p138
aVbreaking
p139
aVprobable
p140
asg16
V26458
p141
sbsVKevin Brock
p142
(i__main__
Player
p143
(dp144
g7
(lp145
VTE
p146
ag142
aV86791
p147
aV8
p148
aV1000
p149
aV4500
p150
aF0.4
aV11
p151
aI00
aI0
ag14
aVold
p152
ag14
asg16
V10566
p153
sbsVDarren Sproles
p154
(i__main__
Player
p155
(dp156
g7
(lp157
VRB
p158
ag154
aV86800
p159
aV19
p160
aV82
p161
aV5300
p162
aF9.6
aV12
p163
aI00
aI0
ag14
aVbreaking
p164
ag14
asg16
V7972
p165
sbsVRicardo Lockette
p166
(i__main__
Player
p167
(dp168
g7
(lp169
VWR
p170
ag166
aV86799
p171
aV31
p172
aV1000
p173
aV4500
p174
aF2.7
aV13
p175
aI00
aI0
ag14
aVold
p176
ag14
asg16
V14629
p177
sbsVAaron Rodgers
p178
(i__main__
Player
p179
(dp180
g7
(lp181
VQB
p182
ag178
aV86910
p183
aV23
p184
aV39
p185
aV10400
p186
aF23.5
aV12
p187
aI00
aI4
ag14
aVold
p188
ag14
asg16
V6894
p189
sbsVLogan Paulsen
p190
(i__main__
Player
p191
(dp192
g7
(lp193
VTE
p194
ag190
aV86796
p195
aV20
p196
aV1000
p197
aV4500
p198
aF1.2
aV13
p199
aI00
aI0
ag14
aVold
p200
ag14
asg16
V12055
p201
sbsVAlfonso Smith
p202
(i__main__
Player
p203
(dp204
g7
(lp205
VRB
p206
ag202
aV86799
p207
aV30
p208
aV1000
p209
aV4500
p210
aF7.7
aV3
p211
aI00
aI0
ag14
aVold
p212
ag14
asg16
V11731
p213
sbsVDaniel Fells
p214
(i__main__
Player
p215
(dp216
g7
(lp217
VTE
p218
ag214
aV86796
p219
aV17
p220
aV1000
p221
aV4500
p222
aF3.4
aV13
p223
aI00
aI0
ag14
aVold
p224
ag14
asg16
V6868
p225
sbsVBrock Osweiler
p226
(i__main__
Player
p227
(dp228
g7
(lp229
VQB
p230
ag226
aV86797
p231
aV13
p232
aV1000
p233
aV5000
p234
aF0.4
aV2
p235
aI00
aI0
ag14
aVold
p236
ag14
asg16
V21994
p237
sbsVMychal Rivera
p238
(i__main__
Player
p239
(dp240
g7
(lp241
VTE
p242
ag238
aV86794
p243
aV15
p244
aV1000
p245
aV5600
p246
aF7.1
aV13
p247
aI00
aI4
ag14
aVbreaking
p248
ag14
asg16
V30807
p249
sbsVMatt Hasselbeck
p250
(i__main__
Player
p251
(dp252
g7
(lp253
VQB
p254
ag250
aV86793
p255
aV10
p256
aV127
p257
aV5000
p258
aF0.3
aV2
p259
aI00
aI0
ag14
aVold
p260
ag14
asg16
V6831
p261
sbsVJustin Tucker
p262
(i__main__
Player
p263
(dp264
g7
(lp265
VK
p266
ag262
aV86788
p267
aV6
p268
aV1000
p269
aV5000
p270
aF9.5
aV13
p271
aI00
aI4
ag14
aVold
p272
ag14
asg16
V23045
p273
sbsVTrey Burton
p274
(i__main__
Player
p275
(dp276
g7
(lp277
VTE
p278
ag274
aV86800
p279
aV19
p280
aV1000
p281
aV4500
p282
aF0.1
aV12
p283
aI00
aI2
aVHamstring
p284
aVold
p285
aVinactive
p286
asg16
V30297
p287
sbsVPierre Garcon
p288
(i__main__
Player
p289
(dp290
g7
(lp291
VWR
p292
ag288
aV86796
p293
aV20
p294
aV1000
p295
aV6000
p296
aF8.2
aV13
p297
aI00
aI4
ag14
aVbreaking
p298
ag14
asg16
V6774
p299
sbsVBruce Gradkowski
p300
(i__main__
Player
p301
(dp302
g7
(lp303
VQB
p304
ag300
aV86787
p305
aV5
p306
aV1000
p307
aV5000
p308
aF2.4
aV1
p309
aI00
aI0
ag14
aVold
p310
ag14
asg16
V7803
p311
sbsVCharlie Whitehurst
p312
(i__main__
Player
p313
(dp314
g7
(lp315
VQB
p316
ag312
aV86798
p317
aV9
p318
aV1000
p319
aV6400
p320
aF13.4
aV4
p321
aI00
aI0
ag14
aVold
p322
ag14
asg16
V7970
p323
sbsVHarry Douglas
p324
(i__main__
Player
p325
(dp326
g7
(lp327
VWR
p328
ag324
aV86910
p329
aV27
p330
aV1000
p331
aV5900
p332
aF7.1
aV8
p333
aI00
aI2
aVFoot
p334
aVrecent
p335
aVprobable
p336
asg16
V10030
p337
sbsVMike Tolbert
p338
(i__main__
Player
p339
(dp340
g7
(lp341
VRB
p342
ag338
aV86790
p343
aV25
p344
aV1000
p345
aV5100
p346
aF3.9
aV5
p347
aI00
aI4
ag14
aVold
p348
ag14
asg16
V7975
p349
sbsVJonathan Grimes
p350
(i__main__
Player
p351
(dp352
g7
(lp353
VRB
p354
ag350
aV86793
p355
aV11
p356
aV1000
p357
aV4600
p358
aF1.5
aV13
p359
aI00
aI2
aVAnkle
p360
aVrecent
p361
aVprobable
p362
asg16
V22991
p363
sbsVChicago Bears
p364
(i__main__
Player
p365
(dp366
g7
(lp367
VD
p368
ag364
aV86801
p369
aV22
p370
aV1000
p371
aV4500
p372
aI0
aI0
aI00
aI4
ag14
aVnone
p373
ag14
asg16
V12527
p374
sbsVGriff Whalen
p375
(i__main__
Player
p376
(dp377
g7
(lp378
VWR
p379
ag375
aV86793
p380
aV10
p381
aV1000
p382
aV4500
p383
aF0.1
aV10
p384
aI00
aI0
ag14
aVold
p385
ag14
asg16
V22447
p386
sbsVJames Jones
p387
(i__main__
Player
p388
(dp389
g7
(lp390
VWR
p391
ag387
aV86794
p392
aV15
p393
aV1000
p394
aV5200
p395
aF8.6
aV13
p396
aI00
aI0
ag14
aVbreaking
p397
ag14
asg16
V7222
p398
sbsVVance McDonald
p399
(i__main__
Player
p400
(dp401
g7
(lp402
VTE
p403
ag399
aV86799
p404
aV30
p405
aV1000
p406
aV4500
p407
aF0.3
aV8
p408
aI00
aI2
aVBack
p409
aVrecent
p410
aVinactive
p411
asg16
V32045
p412
sbsVMicheal Spurlock
p413
(i__main__
Player
p414
(dp415
g7
(lp416
VWR
p417
ag413
aV86801
p418
aV22
p419
aV1000
p420
aV4500
p421
aF1.3
aV1
p422
aI00
aI0
ag14
aVold
p423
ag14
asg16
V7505
p424
sbsVBobby Rainey
p425
(i__main__
Player
p426
(dp427
g7
(lp428
VRB
p429
ag425
aV86790
p430
aV26
p431
aV1000
p432
aV5100
p433
aF7.9
aV12
p434
aI00
aI2
aVAnkle
p435
aVbreaking
p436
aVinactive
p437
asg16
V22958
p438
sbsVAndre Caldwell
p439
(i__main__
Player
p440
(dp441
g7
(lp442
VWR
p443
ag439
aV86797
p444
aV13
p445
aV1000
p446
aV4500
p447
aF0.6
aV13
p448
aI00
aI0
ag14
aVold
p449
ag14
asg16
V6753
p450
sbsVZach Mettenberger
p451
(i__main__
Player
p452
(dp453
g7
(lp454
VQB
p455
ag451
aV86798
p456
aV9
p457
aV1000
p458
aV6200
p459
aF11.1
aV7
p460
aI00
aI6
aVShoulder
p461
aVbreaking
p462
aVdoubtful
p463
asg16
V31421
p464
sbsVGary Barnidge
p465
(i__main__
Player
p466
(dp467
g7
(lp468
VTE
p469
ag465
aV86791
p470
aV7
p471
aV1000
p472
aV4500
p473
aF1.8
aV12
p474
aI00
aI2
aVRibs
p475
aVrecent
p476
aVinactive
p477
asg16
V6422
p478
sbsVMatt Spaeth
p479
(i__main__
Player
p480
(dp481
g7
(lp482
VTE
p483
ag479
aV86787
p484
aV5
p485
aV1000
p486
aV4500
p487
aF1.1
aV13
p488
aI00
aI0
ag14
aVold
p489
ag14
asg16
V6595
p490
sbsVJed Collins
p491
(i__main__
Player
p492
(dp493
g7
(lp494
VRB
p495
ag491
aV86792
p496
aV24
p497
aV1000
p498
aV4600
p499
aI1
aV13
p500
aI00
aI4
ag14
aVold
p501
ag14
asg16
V10542
p502
sbsVRyan Mallett
p503
(i__main__
Player
p504
(dp505
g7
(lp506
VQB
p507
ag503
aV86793
p508
aV11
p509
aV1000
p510
aV5000
p511
aF7.3
aV3
p512
aI00
aI2
aVChest
p513
aVold
p514
aVIR
p515
asg16
V14267
p516
sbsVMarion Grice
p517
(i__main__
Player
p518
(dp519
g7
(lp520
VRB
p521
ag517
aV86786
p522
aV29
p523
aV1000
p524
aV5000
p525
aF1.9
aV7
p526
aI00
aI0
ag14
aVrecent
p527
ag14
asg16
V29108
p528
sbsVJermaine Kearse
p529
(i__main__
Player
p530
(dp531
g7
(lp532
VWR
p533
ag529
aV86799
p534
aV31
p535
aV1000
p536
aV4700
p537
aF5.3
aV13
p538
aI00
aI4
ag14
aVbreaking
p539
ag14
asg16
V22219
p540
sbsVRobert Meachem
p541
(i__main__
Player
p542
(dp543
g7
(lp544
VWR
p545
ag541
aV86801
p546
aV28
p547
aV1000
p548
aV4500
p549
aF1.4
aV8
p550
aI00
aI2
ag14
aVold
p551
aVinactive
p552
asg16
V6646
p553
sbsVMarshawn Lynch
p554
(i__main__
Player
p555
(dp556
g7
(lp557
VRB
p558
ag554
aV86799
p559
aV31
p560
aV1000
p561
aV8700
p562
aF17.6
aV13
p563
aI00
aI2
aVBack
p564
aVbreaking
p565
aVprobable
p566
asg16
V9371
p567
sbsVSammy Watkins
p568
(i__main__
Player
p569
(dp570
g7
(lp571
VWR
p572
ag568
aV86789
p573
aV4
p574
aV1000
p575
aV7200
p576
aF10.7
aV13
p577
aI00
aI2
aVHip
p578
aVbreaking
p579
aVprobable
p580
asg16
V24641
p581
sbsVKyle Rudolph
p582
(i__main__
Player
p583
(dp584
g7
(lp585
VTE
p586
ag582
aV86792
p587
aV21
p588
aV1000
p589
aV5100
p590
aF5.2
aV7
p591
aI00
aI6
aVGroin
p592
aVbreaking
p593
aVprobable
p594
asg16
V14237
p595
sbsVDri Archer
p596
(i__main__
Player
p597
(dp598
g7
(lp599
VRB
p600
ag596
aV86787
p601
aV5
p602
aV1000
p603
aV4500
p604
aF0.7
aV10
p605
aI00
aI2
aVCoach's Decision
p606
aVbreaking
p607
aVinactive
p608
asg16
V44952
p609
sbsVBen Tate
p610
(i__main__
Player
p611
(dp612
g7
(lp613
VRB
p614
ag610
aV86792
p615
aV21
p616
aV1000
p617
aV5100
p618
aF7.1
aV10
p619
aI00
aI0
ag14
aVbreaking
p620
ag14
asg16
V11489
p621
sbsVJohn Conner
p622
(i__main__
Player
p623
(dp624
g7
(lp625
VRB
p626
ag622
aV86798
p627
aV1
p628
aV1000
p629
aV4500
p630
aF0.2
aV9
p631
aI00
aI4
ag14
aVold
p632
ag14
asg16
V11557
p633
sbsVDavante Adams
p634
(i__main__
Player
p635
(dp636
g7
(lp637
VWR
p638
ag634
aV86910
p639
aV23
p640
aV1000
p641
aV6000
p642
aF6.4
aV12
p643
aI00
aI0
ag14
aVold
p644
ag14
asg16
V45889
p645
sbsVEvan Rodriguez
p646
(i__main__
Player
p647
(dp648
g7
(lp649
VRB
p650
ag646
aV86790
p651
aV26
p652
aV1000
p653
aV4500
p654
aI0
aI0
aI00
aI0
ag14
aVold
p655
ag14
asg16
V22042
p656
sbsVJohn Carlson
p657
(i__main__
Player
p658
(dp659
g7
(lp660
VTE
p661
ag657
aV86786
p662
aV29
p663
aV121
p664
aV4900
p665
aF4.2
aV13
p666
aI00
aI0
ag14
aVrecent
p667
ag14
asg16
V6875
p668
sbsVRay Agnew
p669
(i__main__
Player
p670
(dp671
g7
(lp672
VRB
p673
ag669
aV86791
p674
aV7
p675
aV1000
p676
aV4500
p677
aF0.3
aV10
p678
aI00
aI4
ag14
aVnone
p679
ag14
asg16
V54683
p680
sbsVAnthony Fasano
p681
(i__main__
Player
p682
(dp683
g7
(lp684
VTE
p685
ag681
aV86794
p686
aV16
p687
aV1000
p688
aV5000
p689
aF4.8
aV12
p690
aI00
aI6
aVKnee
p691
aVbreaking
p692
aVprobable
p693
asg16
V6778
p694
sbsVLadarius Green
p695
(i__main__
Player
p696
(dp697
g7
(lp698
VTE
p699
ag695
aV86797
p700
aV14
p701
aV1000
p702
aV4600
p703
aF2.7
aV12
p704
aI00
aI6
aVConcussion
p705
aVbreaking
p706
aVquestionable
p707
asg16
V22047
p708
sbsVMartellus Bennett
p709
(i__main__
Player
p710
(dp711
g7
(lp712
VTE
p713
ag709
aV86801
p714
aV22
p715
aV1000
p716
aV6200
p717
aF12.2
aV13
p718
aI00
aI6
aVFoot
p719
aVrecent
p720
aVprobable
p721
asg16
V6448
p722
sbsVHeath Miller
p723
(i__main__
Player
p724
(dp725
g7
(lp726
VTE
p727
ag723
aV86787
p728
aV5
p729
aV1000
p730
aV5400
p731
aF7.9
aV13
p732
aI00
aI6
aVNot Injury Related
p733
aVbreaking
p734
aVprobable
p735
asg16
V6580
p736
sbsVNick Novak
p737
(i__main__
Player
p738
(dp739
g7
(lp740
VK
p741
ag737
aV86797
p742
aV14
p743
aV1000
p744
aV5000
p745
aF7.8
aV13
p746
aI00
aI4
ag14
aVrecent
p747
ag14
asg16
V12090
p748
sbsVSolomon Patton
p749
(i__main__
Player
p750
(dp751
g7
(lp752
VWR
p753
ag749
aV86790
p754
aV26
p755
aV1000
p756
aV4500
p757
aF0.3
aV7
p758
aI00
aI0
ag14
aVrecent
p759
ag14
asg16
V30259
p760
sbsVBlair Walsh
p761
(i__main__
Player
p762
(dp763
g7
(lp764
VK
p765
ag761
aV86792
p766
aV21
p767
aV1000
p768
aV4800
p769
aF8.1
aV13
p770
aI00
aI4
ag14
aVold
p771
ag14
asg16
V22110
p772
sbsVCaleb Sturgis
p773
(i__main__
Player
p774
(dp775
g7
(lp776
VK
p777
ag773
aV86795
p778
aV2
p779
aV1000
p780
aV4900
p781
aF9.2
aV13
p782
aI00
aI4
ag14
aVold
p783
ag14
asg16
V30261
p784
sbsVEddie Lacy
p785
(i__main__
Player
p786
(dp787
g7
(lp788
VRB
p789
ag785
aV86910
p790
aV23
p791
aV1000
p792
aV8500
p793
aI15
aV12
p794
aI00
aI0
ag14
aVold
p795
ag14
asg16
V30968
p796
sbsVNew York Jets
p797
(i__main__
Player
p798
(dp799
g7
(lp800
VD
p801
ag797
aV86798
p802
aV1
p803
aV1000
p804
aV4900
p805
aI0
aI0
aI00
aI4
ag14
aVnone
p806
ag14
asg16
V12544
p807
sbsVPaul Richardson
p808
(i__main__
Player
p809
(dp810
g7
(lp811
VWR
p812
ag808
aV86799
p813
aV31
p814
aV1000
p815
aV4700
p816
aF1.7
aV12
p817
aI00
aI0
ag14
aVold
p818
ag14
asg16
V26610
p819
sbsVJames Wright
p820
(i__main__
Player
p821
(dp822
g7
(lp823
VWR
p824
ag820
aV86791
p825
aV8
p826
aV1000
p827
aV4500
p828
aF1.3
aV11
p829
aI00
aI2
aVKnee
p830
aVrecent
p831
aVinactive
p832
asg16
V31417
p833
sbsVDenver Broncos
p834
(i__main__
Player
p835
(dp836
g7
(lp837
VD
p838
ag834
aV86797
p839
aV13
p840
aV1000
p841
aV4800
p842
aI0
aI0
aI00
aI4
ag14
aVnone
p843
ag14
asg16
V12531
p844
sbsVDerek Hagan
p845
(i__main__
Player
p846
(dp847
g7
(lp848
VWR
p849
ag845
aV86798
p850
aV9
p851
aV1000
p852
aV5200
p853
aF2.5
aV13
p854
aI00
aI0
ag14
aVbreaking
p855
ag14
asg16
V7107
p856
sbsVMinnesota Vikings
p857
(i__main__
Player
p858
(dp859
g7
(lp860
VD
p861
ag857
aV86792
p862
aV21
p863
aV1000
p864
aV5100
p865
aI0
aI0
aI00
aI4
ag14
aVnone
p866
ag14
asg16
V12540
p867
sbsVKellen Moore
p868
(i__main__
Player
p869
(dp870
g7
(lp871
VQB
p872
ag868
aV86792
p873
aV24
p874
aV1000
p875
aV5000
p876
aI0
aI0
aI00
aI2
ag14
aVnone
p877
aVinactive
p878
asg16
V22894
p879
sbsVPeyton Manning
p880
(i__main__
Player
p881
(dp882
g7
(lp883
VQB
p884
ag880
aV86797
p885
aV13
p886
aV22
p887
aV9700
p888
aI22
aV13
p889
aI00
aI4
ag14
aVbreaking
p890
ag14
asg16
V6661
p891
sbsVJace Amaro
p892
(i__main__
Player
p893
(dp894
g7
(lp895
VTE
p896
ag892
aV86798
p897
aV1
p898
aV1000
p899
aV4500
p900
aF5.3
aV11
p901
aI00
aI2
aVConcussion
p902
aVrecent
p903
aVinactive
p904
asg16
V32674
p905
sbsVMark Ingram
p906
(i__main__
Player
p907
(dp908
g7
(lp909
VRB
p910
ag906
aV86801
p911
aV28
p912
aV1000
p913
aV7400
p914
aF13.9
aV10
p915
aI00
aI2
aVAnkle
p916
aVbreaking
p917
aVprobable
p918
asg16
V14211
p919
sbsVBruce Ellington
p920
(i__main__
Player
p921
(dp922
g7
(lp923
VWR
p924
ag920
aV86799
p925
aV30
p926
aV1000
p927
aV4500
p928
aF1.6
aV10
p929
aI00
aI2
aVAnkle
p930
aVbreaking
p931
aVprobable
p932
asg16
V30709
p933
sbsVDwayne Allen
p934
(i__main__
Player
p935
(dp936
g7
(lp937
VTE
p938
ag934
aV86793
p939
aV10
p940
aV1000
p941
aV5400
p942
aF8.5
aV11
p943
aI00
aI6
aVAnkle
p944
aVbreaking
p945
aVprobable
p946
asg16
V22004
p947
sbsVDion Sims
p948
(i__main__
Player
p949
(dp950
g7
(lp951
VTE
p952
ag948
aV86795
p953
aV2
p954
aV1000
p955
aV4500
p956
aF3.5
aV11
p957
aI00
aI0
ag14
aVrecent
p958
ag14
asg16
V28144
p959
sbsVSteve Smith
p960
(i__main__
Player
p961
(dp962
g7
(lp963
VWR
p964
ag960
aV86788
p965
aV6
p966
aV19
p967
aV6800
p968
aF11.8
aV13
p969
aI00
aI0
ag14
aVbreaking
p970
ag14
asg16
V6735
p971
sbsVBrandon LaFell
p972
(i__main__
Player
p973
(dp974
g7
(lp975
VWR
p976
ag972
aV86795
p977
aV3
p978
aV1000
p979
aV7000
p980
aF11.1
aV13
p981
aI00
aI6
aVShoulder
p982
aVbreaking
p983
aVprobable
p984
asg16
V11495
p985
sbsVRod Streater
p986
(i__main__
Player
p987
(dp988
g7
(lp989
VWR
p990
ag986
aV86794
p991
aV15
p992
aV1000
p993
aV4500
p994
aF6.3
aV3
p995
aI00
aI2
aVFoot
p996
aVold
p997
aVIR-R
p998
asg16
V22938
p999
sbsVBrian Tyms
p1000
(i__main__
Player
p1001
(dp1002
g7
(lp1003
VWR
p1004
ag1000
aV86795
p1005
aV3
p1006
aV1000
p1007
aV4500
p1008
aF1.4
aV8
p1009
aI00
aI0
ag14
aVold
p1010
ag14
asg16
V22767
p1011
sbsVRobert Woods
p1012
(i__main__
Player
p1013
(dp1014
g7
(lp1015
VWR
p1016
ag1012
aV86789
p1017
aV4
p1018
aV1000
p1019
aV5800
p1020
aF7.9
aV13
p1021
aI00
aI6
aVAnkle
p1022
aVbreaking
p1023
aVprobable
p1024
asg16
V29685
p1025
sbsVDustin Vaughan
p1026
(i__main__
Player
p1027
(dp1028
g7
(lp1029
VQB
p1030
ag1026
aV86800
p1031
aV18
p1032
aV1000
p1033
aV5000
p1034
aI0
aI0
aI00
aI2
ag14
aVnone
p1035
aVinactive
p1036
asg16
V54705
p1037
sbsVJoshua Cribbs
p1038
(i__main__
Player
p1039
(dp1040
g7
(lp1041
VWR
p1042
ag1038
aV86793
p1043
aV10
p1044
aV1000
p1045
aV4500
p1046
aF2.9
aV3
p1047
aI00
aI2
aVKnee
p1048
aVbreaking
p1049
aVprobable
p1050
asg16
V6694
p1051
sbsVJack Doyle
p1052
(i__main__
Player
p1053
(dp1054
g7
(lp1055
VTE
p1056
ag1052
aV86793
p1057
aV10
p1058
aV1000
p1059
aV4500
p1060
aF1.5
aV13
p1061
aI00
aI0
ag14
aVold
p1062
ag14
asg16
V39859
p1063
sbsVJosh Scobee
p1064
(i__main__
Player
p1065
(dp1066
g7
(lp1067
VK
p1068
ag1064
aV86788
p1069
aV12
p1070
aV1000
p1071
aV4600
p1072
aF5.2
aV13
p1073
aI00
aI4
ag14
aVold
p1074
ag14
asg16
V6676
p1075
sbsVOdell Beckham Jr.
p1076
(i__main__
Player
p1077
(dp1078
g7
(lp1079
VWR
p1080
ag1076
aV86796
p1081
aV17
p1082
aV1000
p1083
aV8500
p1084
aF16.9
aV9
p1085
aI00
aI0
ag14
aVbreaking
p1086
ag14
asg16
V31360
p1087
sbsVJohn Phillips
p1088
(i__main__
Player
p1089
(dp1090
g7
(lp1091
VTE
p1092
ag1088
aV86797
p1093
aV14
p1094
aV1000
p1095
aV4500
p1096
aF0.5
aV13
p1097
aI00
aI0
ag14
aVold
p1098
ag14
asg16
V6823
p1099
sbsVCole Beasley
p1100
(i__main__
Player
p1101
(dp1102
g7
(lp1103
VWR
p1104
ag1100
aV86800
p1105
aV18
p1106
aV1000
p1107
aV5700
p1108
aF4.3
aV13
p1109
aI00
aI0
ag14
aVrecent
p1110
ag14
asg16
V22288
p1111
sbsVRob Housler
p1112
(i__main__
Player
p1113
(dp1114
g7
(lp1115
VTE
p1116
ag1112
aV86786
p1117
aV29
p1118
aV1000
p1119
aV4800
p1120
aF1.1
aV12
p1121
aI00
aI4
ag14
aVold
p1122
ag14
asg16
V14274
p1123
sbsVShayne Graham
p1124
(i__main__
Player
p1125
(dp1126
g7
(lp1127
VK
p1128
ag1124
aV86801
p1129
aV28
p1130
aV1000
p1131
aV4800
p1132
aF7.4
aV13
p1133
aI00
aI0
ag14
aVold
p1134
ag14
asg16
V6815
p1135
sbsVMike Evans
p1136
(i__main__
Player
p1137
(dp1138
g7
(lp1139
VWR
p1140
ag1136
aV86790
p1141
aV26
p1142
aV1000
p1143
aV8200
p1144
aF15.2
aV12
p1145
aI00
aI4
ag14
aVbreaking
p1146
ag14
asg16
V32384
p1147
sbsVSeattle Seahawks
p1148
(i__main__
Player
p1149
(dp1150
g7
(lp1151
VD
p1152
ag1148
aV86799
p1153
aV31
p1154
aV1000
p1155
aV5500
p1156
aI0
aI0
aI00
aI4
ag14
aVnone
p1157
ag14
asg16
V12550
p1158
sbsVAdrien Robinson
p1159
(i__main__
Player
p1160
(dp1161
g7
(lp1162
VTE
p1163
ag1159
aV86796
p1164
aV17
p1165
aV1000
p1166
aV4500
p1167
aI1
aV13
p1168
aI00
aI0
ag14
aVold
p1169
ag14
asg16
V22067
p1170
sbsVTravis Kelce
p1171
(i__main__
Player
p1172
(dp1173
g7
(lp1174
VTE
p1175
ag1171
aV86794
p1176
aV16
p1177
aV1000
p1178
aV5400
p1179
aF8.8
aV13
p1180
aI00
aI0
ag14
aVbreaking
p1181
ag14
asg16
V33076
p1182
sbsVCase Keenum
p1183
(i__main__
Player
p1184
(dp1185
g7
(lp1186
VQB
p1187
ag1183
aV86786
p1188
aV32
p1189
aV1000
p1190
aV5000
p1191
aI0
aI0
aI00
aI0
ag14
aVold
p1192
ag14
asg16
V22994
p1193
sbsVIsaiah Crowell
p1194
(i__main__
Player
p1195
(dp1196
g7
(lp1197
VRB
p1198
ag1194
aV86791
p1199
aV7
p1200
aV1000
p1201
aV6500
p1202
aF8.2
aV13
p1203
aI00
aI2
aVHip
p1204
aVbreaking
p1205
aVprobable
p1206
asg16
V54684
p1207
sbsVRiley Cooper
p1208
(i__main__
Player
p1209
(dp1210
g7
(lp1211
VWR
p1212
ag1208
aV86800
p1213
aV19
p1214
aV1000
p1215
aV5000
p1216
aF5.7
aV13
p1217
aI00
aI0
ag14
aVold
p1218
ag14
asg16
V11577
p1219
sbsVRyan Fitzpatrick
p1220
(i__main__
Player
p1221
(dp1222
g7
(lp1223
VQB
p1224
ag1220
aV86793
p1225
aV11
p1226
aV1000
p1227
aV7000
p1228
aF16.8
aV11
p1229
aI00
aI4
ag14
aVbreaking
p1230
ag14
asg16
V7659
p1231
sbsVBrandon Myers
p1232
(i__main__
Player
p1233
(dp1234
g7
(lp1235
VTE
p1236
ag1232
aV86790
p1237
aV26
p1238
aV1000
p1239
aV4500
p1240
aF2.4
aV11
p1241
aI00
aI6
aVCalf
p1242
aVbreaking
p1243
aVinactive
p1244
asg16
V7801
p1245
sbsVEmmanuel Sanders
p1246
(i__main__
Player
p1247
(dp1248
g7
(lp1249
VWR
p1250
ag1246
aV86797
p1251
aV13
p1252
aV1000
p1253
aV8600
p1254
aF16.3
aV13
p1255
aI00
aI0
ag14
aVbreaking
p1256
ag14
asg16
V11505
p1257
sbsVCharles Clay
p1258
(i__main__
Player
p1259
(dp1260
g7
(lp1261
VTE
p1262
ag1258
aV86795
p1263
aV2
p1264
aV1000
p1265
aV5100
p1266
aF6.5
aV11
p1267
aI00
aI6
aVKnee
p1268
aVbreaking
p1269
aVprobable
p1270
asg16
V14362
p1271
sbsVDan Carpenter
p1272
(i__main__
Player
p1273
(dp1274
g7
(lp1275
VK
p1276
ag1272
aV86789
p1277
aV4
p1278
aV1000
p1279
aV4900
p1280
aF9.4
aV13
p1281
aI00
aI2
aVGroin
p1282
aVbreaking
p1283
aVprobable
p1284
asg16
V6810
p1285
sbsVDrew Brees
p1286
(i__main__
Player
p1287
(dp1288
g7
(lp1289
VQB
p1290
ag1286
aV86801
p1291
aV28
p1292
aV12
p1293
aV9200
p1294
aF20.6
aV13
p1295
aI00
aI4
ag14
aVbreaking
p1296
ag14
asg16
V6504
p1297
sbsVFred Jackson
p1298
(i__main__
Player
p1299
(dp1300
g7
(lp1301
VRB
p1302
ag1298
aV86789
p1303
aV4
p1304
aV105
p1305
aV6600
p1306
aF11.2
aV11
p1307
aI00
aI0
ag14
aVbreaking
p1308
ag14
asg16
V7660
p1309
sbsVRyan Tannehill
p1310
(i__main__
Player
p1311
(dp1312
g7
(lp1313
VQB
p1314
ag1310
aV86795
p1315
aV2
p1316
aV1000
p1317
aV8000
p1318
aF17.7
aV13
p1319
aI00
aI4
ag14
aVbreaking
p1320
ag14
asg16
V21948
p1321
sbsVJosh McCown
p1322
(i__main__
Player
p1323
(dp1324
g7
(lp1325
VQB
p1326
ag1322
aV86790
p1327
aV26
p1328
aV1000
p1329
aV7100
p1330
aF14.3
aV8
p1331
aI00
aI6
aVBack
p1332
aVbreaking
p1333
aVprobable
p1334
asg16
V6803
p1335
sbsVCrockett Gillmore
p1336
(i__main__
Player
p1337
(dp1338
g7
(lp1339
VTE
p1340
ag1336
aV86788
p1341
aV6
p1342
aV1000
p1343
aV4500
p1344
aF1.2
aV12
p1345
aI00
aI2
aVBack
p1346
aVold
p1347
aVinactive
p1348
asg16
V45723
p1349
sbsVQuincy Enunwa
p1350
(i__main__
Player
p1351
(dp1352
g7
(lp1353
VWR
p1354
ag1350
aV86798
p1355
aV1
p1356
aV1000
p1357
aV4500
p1358
aI0
aI0
aI00
aI0
ag14
aVold
p1359
ag14
asg16
V27266
p1360
sbsVCleveland Browns
p1361
(i__main__
Player
p1362
(dp1363
g7
(lp1364
VD
p1365
ag1361
aV86791
p1366
aV7
p1367
aV1000
p1368
aV4800
p1369
aI0
aI0
aI00
aI4
ag14
aVnone
p1370
ag14
asg16
V12529
p1371
sbsVLaRon Byrd
p1372
(i__main__
Player
p1373
(dp1374
g7
(lp1375
VWR
p1376
ag1372
aV86795
p1377
aV2
p1378
aV1000
p1379
aV4500
p1380
aI0
aV1
p1381
aI00
aI0
ag14
aVold
p1382
ag14
asg16
V22363
p1383
sbsVMarlon Moore
p1384
(i__main__
Player
p1385
(dp1386
g7
(lp1387
VWR
p1388
ag1384
aV86791
p1389
aV7
p1390
aV1000
p1391
aV4500
p1392
aF1.1
aV10
p1393
aI00
aI2
aVHamstring
p1394
aVold
p1395
aVprobable
p1396
asg16
V11723
p1397
sbsVJustin Forsett
p1398
(i__main__
Player
p1399
(dp1400
g7
(lp1401
VRB
p1402
ag1398
aV86788
p1403
aV6
p1404
aV1000
p1405
aV7700
p1406
aF15.4
aV13
p1407
aI00
aI2
aVKnee
p1408
aVbreaking
p1409
aVprobable
p1410
asg16
V6857
p1411
sbsVJimmy Garoppolo
p1412
(i__main__
Player
p1413
(dp1414
g7
(lp1415
VQB
p1416
ag1412
aV86795
p1417
aV3
p1418
aV1000
p1419
aV5000
p1420
aF1.7
aV4
p1421
aI00
aI0
ag14
aVold
p1422
ag14
asg16
V54604
p1423
sbsVSaalim Hakim
p1424
(i__main__
Player
p1425
(dp1426
g7
(lp1427
VWR
p1428
ag1424
aV86798
p1429
aV1
p1430
aV1000
p1431
aV4500
p1432
aI0
aV13
p1433
aI00
aI0
ag14
aVold
p1434
ag14
asg16
V22294
p1435
sbsVKai Forbath
p1436
(i__main__
Player
p1437
(dp1438
g7
(lp1439
VK
p1440
ag1436
aV86796
p1441
aV20
p1442
aV1000
p1443
aV4500
p1444
aF6.8
aV13
p1445
aI00
aI4
ag14
aVold
p1446
ag14
asg16
V15176
p1447
sbsVGarrett Graham
p1448
(i__main__
Player
p1449
(dp1450
g7
(lp1451
VTE
p1452
ag1448
aV86793
p1453
aV11
p1454
aV1000
p1455
aV4800
p1456
aF3.2
aV11
p1457
aI00
aI6
aVAnkle
p1458
aVrecent
p1459
aVinactive
p1460
asg16
V11538
p1461
sbsVDarrin Reaves
p1462
(i__main__
Player
p1463
(dp1464
g7
(lp1465
VRB
p1466
ag1462
aV86790
p1467
aV25
p1468
aV1000
p1469
aV4800
p1470
aF2.2
aV6
p1471
aI00
aI0
ag14
aVold
p1472
ag14
asg16
V34234
p1473
sbsVWalt Powell
p1474
(i__main__
Player
p1475
(dp1476
g7
(lp1477
VWR
p1478
ag1474
aV86798
p1479
aV1
p1480
aV1000
p1481
aV4500
p1482
aF-0.5
aV4
p1483
aI00
aI2
ag14
aVold
p1484
aVinactive
p1485
asg16
V54621
p1486
sbsVRyan Broyles
p1487
(i__main__
Player
p1488
(dp1489
g7
(lp1490
VWR
p1491
ag1487
aV86792
p1492
aV24
p1493
aV1000
p1494
aV4500
p1495
aF0.7
aV5
p1496
aI00
aI2
ag14
aVold
p1497
aVinactive
p1498
asg16
V21990
p1499
sbsVRussell Wilson
p1500
(i__main__
Player
p1501
(dp1502
g7
(lp1503
VQB
p1504
ag1500
aV86799
p1505
aV31
p1506
aV1000
p1507
aV8800
p1508
aF21.3
aV13
p1509
aI00
aI4
ag14
aVbreaking
p1510
ag14
asg16
V22015
p1511
sbsVBrice Butler
p1512
(i__main__
Player
p1513
(dp1514
g7
(lp1515
VWR
p1516
ag1512
aV86794
p1517
aV15
p1518
aV1000
p1519
aV4500
p1520
aF3.8
aV12
p1521
aI00
aI0
ag14
aVold
p1522
ag14
asg16
V39445
p1523
sbsVDan Herron
p1524
(i__main__
Player
p1525
(dp1526
g7
(lp1527
VRB
p1528
ag1524
aV86793
p1529
aV10
p1530
aV1000
p1531
aV6300
p1532
aF3.3
aV13
p1533
aI00
aI0
ag14
aVbreaking
p1534
ag14
asg16
V22130
p1535
sbsVFrankie Hammond
p1536
(i__main__
Player
p1537
(dp1538
g7
(lp1539
VWR
p1540
ag1536
aV86794
p1541
aV16
p1542
aV1000
p1543
aV4500
p1544
aF0.4
aV13
p1545
aI00
aI0
ag14
aVrecent
p1546
ag14
asg16
V30249
p1547
sbsVBrandon Gibson
p1548
(i__main__
Player
p1549
(dp1550
g7
(lp1551
VWR
p1552
ag1548
aV86795
p1553
aV2
p1554
aV1000
p1555
aV4800
p1556
aF3.2
aV11
p1557
aI00
aI0
ag14
aVold
p1558
ag14
asg16
V7926
p1559
sbsVWashington Redskins
p1560
(i__main__
Player
p1561
(dp1562
g7
(lp1563
VD
p1564
ag1560
aV86796
p1565
aV20
p1566
aV1000
p1567
aV4500
p1568
aI0
aI0
aI00
aI4
ag14
aVnone
p1569
ag14
asg16
V12552
p1570
sbsVTrent Richardson
p1571
(i__main__
Player
p1572
(dp1573
g7
(lp1574
VRB
p1575
ag1571
aV86793
p1576
aV10
p1577
aV1000
p1578
aV5300
p1579
aF7.9
aV12
p1580
aI00
aI4
ag14
aVbreaking
p1581
ag14
asg16
V21940
p1582
sbsVLamar Miller
p1583
(i__main__
Player
p1584
(dp1585
g7
(lp1586
VRB
p1587
ag1583
aV86795
p1588
aV2
p1589
aV1000
p1590
aV6700
p1591
aF11.6
aV13
p1592
aI00
aI4
ag14
aVbreaking
p1593
ag14
asg16
V22037
p1594
sbsVDonald Brown
p1595
(i__main__
Player
p1596
(dp1597
g7
(lp1598
VRB
p1599
ag1595
aV86797
p1600
aV14
p1601
aV89
p1602
aV4700
p1603
aF4.3
aV10
p1604
aI00
aI0
ag14
aVbreaking
p1605
ag14
asg16
V6660
p1606
sbsVLuke Willson
p1607
(i__main__
Player
p1608
(dp1609
g7
(lp1610
VTE
p1611
ag1607
aV86799
p1612
aV31
p1613
aV1000
p1614
aV4500
p1615
aF2.8
aV12
p1616
aI00
aI4
ag14
aVold
p1617
ag14
asg16
V32000
p1618
sbsVJarvis Landry
p1619
(i__main__
Player
p1620
(dp1621
g7
(lp1622
VWR
p1623
ag1619
aV86795
p1624
aV2
p1625
aV1000
p1626
aV6900
p1627
aF8.6
aV13
p1628
aI00
aI4
ag14
aVbreaking
p1629
ag14
asg16
V31394
p1630
sbsVTauren Poole
p1631
(i__main__
Player
p1632
(dp1633
g7
(lp1634
VRB
p1635
ag1631
aV86801
p1636
aV28
p1637
aV1000
p1638
aV4800
p1639
aI-2
aV1
p1640
aI00
aI0
ag14
aVold
p1641
ag14
asg16
V22331
p1642
sbsVJeff Cumberland
p1643
(i__main__
Player
p1644
(dp1645
g7
(lp1646
VTE
p1647
ag1643
aV86798
p1648
aV1
p1649
aV1000
p1650
aV4500
p1651
aF2.3
aV13
p1652
aI00
aI6
aVIllness
p1653
aVold
p1654
aVprobable
p1655
asg16
V11766
p1656
sbsVIsaiah Burse
p1657
(i__main__
Player
p1658
(dp1659
g7
(lp1660
VWR
p1661
ag1657
aV86797
p1662
aV13
p1663
aV1000
p1664
aV4500
p1665
aF-0.2
aV12
p1666
aI00
aI0
ag14
aVold
p1667
ag14
asg16
V45821
p1668
sbsVBrenton Bersin
p1669
(i__main__
Player
p1670
(dp1671
g7
(lp1672
VWR
p1673
ag1669
aV86790
p1674
aV25
p1675
aV1000
p1676
aV4600
p1677
aF2.1
aV12
p1678
aI00
aI0
ag14
aVold
p1679
ag14
asg16
V22317
p1680
sbsVBrandon Pettigrew
p1681
(i__main__
Player
p1682
(dp1683
g7
(lp1684
VTE
p1685
ag1681
aV86792
p1686
aV24
p1687
aV1000
p1688
aV4500
p1689
aF1.1
aV11
p1690
aI00
aI4
ag14
aVold
p1691
ag14
asg16
V7394
p1692
sbsVDan Bailey
p1693
(i__main__
Player
p1694
(dp1695
g7
(lp1696
VK
p1697
ag1693
aV86800
p1698
aV18
p1699
aV1000
p1700
aV5100
p1701
aF9.2
aV13
p1702
aI00
aI4
ag14
aVold
p1703
ag14
asg16
V14952
p1704
sbsVBruce Miller
p1705
(i__main__
Player
p1706
(dp1707
g7
(lp1708
VRB
p1709
ag1705
aV86799
p1710
aV30
p1711
aV1000
p1712
aV4700
p1713
aF1.6
aV13
p1714
aI00
aI4
ag14
aVold
p1715
ag14
asg16
V14406
p1716
sbsVBrandon Williams
p1717
(i__main__
Player
p1718
(dp1719
g7
(lp1720
VTE
p1721
ag1717
aV86790
p1722
aV25
p1723
aV1000
p1724
aV4500
p1725
aF0.6
aV11
p1726
aI00
aI0
ag14
aVold
p1727
ag14
asg16
V39615
p1728
sbsVSean Renfree
p1729
(i__main__
Player
p1730
(dp1731
g7
(lp1732
VQB
p1733
ag1729
aV86910
p1734
aV27
p1735
aV1000
p1736
aV5000
p1737
aI0
aI0
aI00
aI0
ag14
aVold
p1738
ag14
asg16
V24760
p1739
sbsVChris Hogan
p1740
(i__main__
Player
p1741
(dp1742
g7
(lp1743
VWR
p1744
ag1740
aV86789
p1745
aV4
p1746
aV1000
p1747
aV5900
p1748
aF5.8
aV13
p1749
aI00
aI2
aVHamstring
p1750
aVbreaking
p1751
aVprobable
p1752
asg16
V14704
p1753
sbsVDonte Moncrief
p1754
(i__main__
Player
p1755
(dp1756
g7
(lp1757
VWR
p1758
ag1754
aV86793
p1759
aV10
p1760
aV1000
p1761
aV5700
p1762
aF5.8
aV13
p1763
aI00
aI0
ag14
aVold
p1764
ag14
asg16
V31561
p1765
sbsVChris Polk
p1766
(i__main__
Player
p1767
(dp1768
g7
(lp1769
VRB
p1770
ag1766
aV86800
p1771
aV19
p1772
aV1000
p1773
aV5000
p1774
aF2.5
aV11
p1775
aI00
aI2
aVAnkle
p1776
aVbreaking
p1777
aVprobable
p1778
asg16
V22234
p1779
sbsVBrian Leonhardt
p1780
(i__main__
Player
p1781
(dp1782
g7
(lp1783
VTE
p1784
ag1780
aV86794
p1785
aV15
p1786
aV1000
p1787
aV4500
p1788
aI1
aV12
p1789
aI00
aI2
aVConcussion
p1790
aVnone
p1791
aVinactive
p1792
asg16
V39539
p1793
sbsVJosh Bellamy
p1794
(i__main__
Player
p1795
(dp1796
g7
(lp1797
VWR
p1798
ag1794
aV86801
p1799
aV22
p1800
aV1000
p1801
aV4500
p1802
aI0
aV1
p1803
aI00
aI0
ag14
aVold
p1804
ag14
asg16
V22336
p1805
sbsVFrank Gore
p1806
(i__main__
Player
p1807
(dp1808
g7
(lp1809
VRB
p1810
ag1806
aV86799
p1811
aV30
p1812
aV10
p1813
aV5300
p1814
aF8.2
aV13
p1815
aI00
aI0
ag14
aVbreaking
p1816
ag14
asg16
V6840
p1817
sbsVDwayne Harris
p1818
(i__main__
Player
p1819
(dp1820
g7
(lp1821
VWR
p1822
ag1818
aV86800
p1823
aV18
p1824
aV1000
p1825
aV4500
p1826
aF0.9
aV13
p1827
aI00
aI0
ag14
aVold
p1828
ag14
asg16
V14358
p1829
sbsVSeyi Ajirotutu
p1830
(i__main__
Player
p1831
(dp1832
g7
(lp1833
VWR
p1834
ag1830
aV86797
p1835
aV14
p1836
aV1000
p1837
aV4500
p1838
aF0.2
aV13
p1839
aI00
aI0
ag14
aVold
p1840
ag14
asg16
V11870
p1841
sbsVRodney Smith
p1842
(i__main__
Player
p1843
(dp1844
g7
(lp1845
VWR
p1846
ag1842
aV86791
p1847
aV7
p1848
aV1000
p1849
aV4500
p1850
aI0
aV2
p1851
aI00
aI2
aVCoach's Decision
p1852
aVold
p1853
aVinactive
p1854
asg16
V24812
p1855
sbsVAtlanta Falcons
p1856
(i__main__
Player
p1857
(dp1858
g7
(lp1859
VD
p1860
ag1856
aV86910
p1861
aV27
p1862
aV1000
p1863
aV4500
p1864
aI0
aI0
aI00
aI4
ag14
aVnone
p1865
ag14
asg16
V12525
p1866
sbsVQuinton Patton
p1867
(i__main__
Player
p1868
(dp1869
g7
(lp1870
VWR
p1871
ag1867
aV86799
p1872
aV30
p1873
aV1000
p1874
aV4500
p1875
aF2.6
aV1
p1876
aI00
aI0
ag14
aVold
p1877
ag14
asg16
V39427
p1878
sbsVJason Witten
p1879
(i__main__
Player
p1880
(dp1881
g7
(lp1882
VTE
p1883
ag1879
aV86800
p1884
aV18
p1885
aV50
p1886
aV5300
p1887
aF7.4
aV13
p1888
aI00
aI4
ag14
aVrecent
p1889
ag14
asg16
V6641
p1890
sbsVAndre Ellington
p1891
(i__main__
Player
p1892
(dp1893
g7
(lp1894
VRB
p1895
ag1891
aV86786
p1896
aV29
p1897
aV1000
p1898
aV7400
p1899
aF12.9
aV12
p1900
aI00
aI6
aVHip
p1901
aVbreaking
p1902
aVinactive
p1903
asg16
V24682
p1904
sbsVErik Lorig
p1905
(i__main__
Player
p1906
(dp1907
g7
(lp1908
VRB
p1909
ag1905
aV86801
p1910
aV28
p1911
aV1000
p1912
aV4500
p1913
aF1.6
aV7
p1914
aI00
aI4
ag14
aVold
p1915
ag14
asg16
V11671
p1916
sbsVBryan Walters
p1917
(i__main__
Player
p1918
(dp1919
g7
(lp1920
VWR
p1921
ag1917
aV86799
p1922
aV31
p1923
aV1000
p1924
aV4500
p1925
aF0.7
aV10
p1926
aI00
aI2
ag14
aVold
p1927
aVinactive
p1928
asg16
V11890
p1929
sbsVTed Ginn Jr.
p1930
(i__main__
Player
p1931
(dp1932
g7
(lp1933
VWR
p1934
ag1930
aV86786
p1935
aV29
p1936
aV109
p1937
aV5100
p1938
aF2.4
aV13
p1939
aI00
aI0
ag14
aVrecent
p1940
ag14
asg16
V6627
p1941
sbsVJosh Huff
p1942
(i__main__
Player
p1943
(dp1944
g7
(lp1945
VWR
p1946
ag1942
aV86800
p1947
aV19
p1948
aV1000
p1949
aV4500
p1950
aF1.4
aV9
p1951
aI00
aI0
ag14
aVold
p1952
ag14
asg16
V29340
p1953
sbsVJay Prosch
p1954
(i__main__
Player
p1955
(dp1956
g7
(lp1957
VRB
p1958
ag1954
aV86793
p1959
aV11
p1960
aV1000
p1961
aV4500
p1962
aF0.2
aV13
p1963
aI00
aI4
ag14
aVnone
p1964
ag14
asg16
V31321
p1965
sbsVClay Harbor
p1966
(i__main__
Player
p1967
(dp1968
g7
(lp1969
VTE
p1970
ag1966
aV86788
p1971
aV12
p1972
aV1000
p1973
aV4500
p1974
aF4.8
aV10
p1975
aI00
aI0
ag14
aVold
p1976
ag14
asg16
V11543
p1977
sbsVKenny Stills
p1978
(i__main__
Player
p1979
(dp1980
g7
(lp1981
VWR
p1982
ag1978
aV86801
p1983
aV28
p1984
aV1000
p1985
aV6100
p1986
aF9.4
aV12
p1987
aI00
aI4
ag14
aVrecent
p1988
ag14
asg16
V27457
p1989
sbsVGraham Gano
p1990
(i__main__
Player
p1991
(dp1992
g7
(lp1993
VK
p1994
ag1990
aV86790
p1995
aV25
p1996
aV1000
p1997
aV4900
p1998
aF7.8
aV13
p1999
aI00
aI4
ag14
aVold
p2000
ag14
asg16
V10744
p2001
sbsVTheo Riddick
p2002
(i__main__
Player
p2003
(dp2004
g7
(lp2005
VRB
p2006
ag2002
aV86792
p2007
aV24
p2008
aV1000
p2009
aV5100
p2010
aF5.8
aV11
p2011
aI00
aI2
aVToe
p2012
aVbreaking
p2013
aVprobable
p2014
asg16
V33465
p2015
sbsVJalen Saunders
p2016
(i__main__
Player
p2017
(dp2018
g7
(lp2019
VWR
p2020
ag2016
aV86801
p2021
aV28
p2022
aV1000
p2023
aV4500
p2024
aF-0.3
aV6
p2025
aI00
aI0
ag14
aVold
p2026
ag14
asg16
V27445
p2027
sbsVDexter McCluster
p2028
(i__main__
Player
p2029
(dp2030
g7
(lp2031
VRB
p2032
ag2028
aV86798
p2033
aV9
p2034
aV1000
p2035
aV4800
p2036
aF3.6
aV13
p2037
aI00
aI0
ag14
aVbreaking
p2038
ag14
asg16
V11454
p2039
sbsVJordan Reed
p2040
(i__main__
Player
p2041
(dp2042
g7
(lp2043
VTE
p2044
ag2040
aV86796
p2045
aV20
p2046
aV1000
p2047
aV5200
p2048
aI7
aV8
p2049
aI00
aI4
ag14
aVbreaking
p2050
ag14
asg16
V30298
p2051
sbsVAlbert Wilson
p2052
(i__main__
Player
p2053
(dp2054
g7
(lp2055
VWR
p2056
ag2052
aV86794
p2057
aV16
p2058
aV1000
p2059
aV5000
p2060
aF1.6
aV9
p2061
aI00
aI0
ag14
aVold
p2062
ag14
asg16
V48344
p2063
sbsVTennessee Titans
p2064
(i__main__
Player
p2065
(dp2066
g7
(lp2067
VD
p2068
ag2064
aV86798
p2069
aV9
p2070
aV1000
p2071
aV4700
p2072
aI0
aI0
aI00
aI4
ag14
aVnone
p2073
ag14
asg16
V12534
p2074
sbsVCory Harkey
p2075
(i__main__
Player
p2076
(dp2077
g7
(lp2078
VTE
p2079
ag2075
aV86786
p2080
aV32
p2081
aV1000
p2082
aV4900
p2083
aF1.1
aV13
p2084
aI00
aI0
ag14
aVold
p2085
ag14
asg16
V22849
p2086
sbsVTony Romo
p2087
(i__main__
Player
p2088
(dp2089
g7
(lp2090
VQB
p2091
ag2087
aV86800
p2092
aV18
p2093
aV47
p2094
aV8400
p2095
aF17.4
aV12
p2096
aI00
aI6
aVBack
p2097
aVrecent
p2098
aVprobable
p2099
asg16
V6639
p2100
sbsVGreg Zuerlein
p2101
(i__main__
Player
p2102
(dp2103
g7
(lp2104
VK
p2105
ag2101
aV86786
p2106
aV32
p2107
aV1000
p2108
aV5000
p2109
aF7.2
aV13
p2110
aI00
aI4
ag14
aVold
p2111
ag14
asg16
V22109
p2112
sbsVToby Gerhart
p2113
(i__main__
Player
p2114
(dp2115
g7
(lp2116
VRB
p2117
ag2113
aV86788
p2118
aV12
p2119
aV1000
p2120
aV4600
p2121
aF4.6
aV11
p2122
aI00
aI2
aVShoulder
p2123
aVbreaking
p2124
aVprobable
p2125
asg16
V11479
p2126
sbsVMike Nugent
p2127
(i__main__
Player
p2128
(dp2129
g7
(lp2130
VK
p2131
ag2127
aV86791
p2132
aV8
p2133
aV1000
p2134
aV4600
p2135
aF7.2
aV13
p2136
aI00
aI4
ag14
aVold
p2137
ag14
asg16
V6636
p2138
sbsVJarius Wright
p2139
(i__main__
Player
p2140
(dp2141
g7
(lp2142
VWR
p2143
ag2139
aV86792
p2144
aV21
p2145
aV1000
p2146
aV5600
p2147
aF5.7
aV13
p2148
aI00
aI0
ag14
aVbreaking
p2149
ag14
asg16
V22054
p2150
sbsVJaron Brown
p2151
(i__main__
Player
p2152
(dp2153
g7
(lp2154
VWR
p2155
ag2151
aV86786
p2156
aV29
p2157
aV1000
p2158
aV5200
p2159
aF3.4
aV13
p2160
aI00
aI0
ag14
aVbreaking
p2161
ag14
asg16
V24589
p2162
sbsVChristopher Ivory
p2163
(i__main__
Player
p2164
(dp2165
g7
(lp2166
VRB
p2167
ag2163
aV86798
p2168
aV1
p2169
aV1000
p2170
aV5200
p2171
aF9.1
aV13
p2172
aI00
aI0
ag14
aVbreaking
p2173
ag14
asg16
V11864
p2174
sbsVFoswhitt Whittaker
p2175
(i__main__
Player
p2176
(dp2177
g7
(lp2178
VRB
p2179
ag2175
aV86790
p2180
aV25
p2181
aV1000
p2182
aV5300
p2183
aF4.2
aV7
p2184
aI00
aI0
ag14
aVbreaking
p2185
ag14
asg16
V37245
p2186
sbsVTony Moeaki
p2187
(i__main__
Player
p2188
(dp2189
g7
(lp2190
VTE
p2191
ag2187
aV86799
p2192
aV31
p2193
aV1000
p2194
aV4900
p2195
aF5.2
aV4
p2196
aI00
aI0
ag14
aVold
p2197
ag14
asg16
V11511
p2198
sbsVDenard Robinson
p2199
(i__main__
Player
p2200
(dp2201
g7
(lp2202
VRB
p2203
ag2199
aV86788
p2204
aV12
p2205
aV1000
p2206
aV6000
p2207
aF7.9
aV13
p2208
aI00
aI0
ag14
aVbreaking
p2209
ag14
asg16
V28088
p2210
sbsVJoe Banyard
p2211
(i__main__
Player
p2212
(dp2213
g7
(lp2214
VRB
p2215
ag2211
aV86792
p2216
aV21
p2217
aV1000
p2218
aV4500
p2219
aI1
aV12
p2220
aI00
aI0
ag14
aVbreaking
p2221
ag14
asg16
V22308
p2222
sbsVLe'Veon Bell
p2223
(i__main__
Player
p2224
(dp2225
g7
(lp2226
VRB
p2227
ag2223
aV86787
p2228
aV5
p2229
aV1000
p2230
aV9600
p2231
aF21.2
aV13
p2232
aI00
aI0
ag14
aVbreaking
p2233
ag14
asg16
V28181
p2234
sbsVMickey Shuler
p2235
(i__main__
Player
p2236
(dp2237
g7
(lp2238
VTE
p2239
ag2235
aV86788
p2240
aV12
p2241
aV1000
p2242
aV4500
p2243
aI0
aV3
p2244
aI00
aI0
ag14
aVold
p2245
ag14
asg16
V11638
p2246
sbsVNick Toon
p2247
(i__main__
Player
p2248
(dp2249
g7
(lp2250
VWR
p2251
ag2247
aV86801
p2252
aV28
p2253
aV1000
p2254
aV4900
p2255
aF4.2
aV5
p2256
aI00
aI0
ag14
aVrecent
p2257
ag14
asg16
V22060
p2258
sbsVJordan Cameron
p2259
(i__main__
Player
p2260
(dp2261
g7
(lp2262
VTE
p2263
ag2259
aV86791
p2264
aV7
p2265
aV1000
p2266
aV5100
p2267
aF6.2
aV7
p2268
aI00
aI6
aVConcussion
p2269
aVbreaking
p2270
aVprobable
p2271
asg16
V14292
p2272
sbsVNew Orleans Saints
p2273
(i__main__
Player
p2274
(dp2275
g7
(lp2276
VD
p2277
ag2273
aV86801
p2278
aV28
p2279
aV1000
p2280
aV4500
p2281
aI0
aI0
aI00
aI4
ag14
aVnone
p2282
ag14
asg16
V12542
p2283
sbsVNew England Patriots
p2284
(i__main__
Player
p2285
(dp2286
g7
(lp2287
VD
p2288
ag2284
aV86795
p2289
aV3
p2290
aV1000
p2291
aV5000
p2292
aI0
aI0
aI00
aI4
ag14
aVnone
p2293
ag14
asg16
V12541
p2294
sbsVNic Jacobs
p2295
(i__main__
Player
p2296
(dp2297
g7
(lp2298
VTE
p2299
ag2295
aV86788
p2300
aV12
p2301
aV1000
p2302
aV4500
p2303
aF0.9
aV10
p2304
aI00
aI0
ag14
aVold
p2305
ag14
asg16
V31435
p2306
sbsVBrandon Tate
p2307
(i__main__
Player
p2308
(dp2309
g7
(lp2310
VWR
p2311
ag2307
aV86791
p2312
aV8
p2313
aV1000
p2314
aV4600
p2315
aF2.2
aV13
p2316
aI00
aI0
ag14
aVold
p2317
ag14
asg16
V9442
p2318
sbsVRandy Bullock
p2319
(i__main__
Player
p2320
(dp2321
g7
(lp2322
VK
p2323
ag2319
aV86793
p2324
aV11
p2325
aV1000
p2326
aV5200
p2327
aI9
aV13
p2328
aI00
aI4
ag14
aVrecent
p2329
ag14
asg16
V22100
p2330
sbsVCam Newton
p2331
(i__main__
Player
p2332
(dp2333
g7
(lp2334
VQB
p2335
ag2331
aV86790
p2336
aV25
p2337
aV1000
p2338
aV8100
p2339
aI18
aV12
p2340
aI00
aI4
ag14
aVbreaking
p2341
ag14
asg16
V14185
p2342
sbsVMichael Palmer
p2343
(i__main__
Player
p2344
(dp2345
g7
(lp2346
VTE
p2347
ag2343
aV86787
p2348
aV5
p2349
aV1000
p2350
aV4500
p2351
aF0.5
aV13
p2352
aI00
aI0
ag14
aVold
p2353
ag14
asg16
V11708
p2354
sbsVZac Stacy
p2355
(i__main__
Player
p2356
(dp2357
g7
(lp2358
VRB
p2359
ag2355
aV86786
p2360
aV32
p2361
aV1000
p2362
aV4800
p2363
aF4.7
aV11
p2364
aI00
aI0
ag14
aVrecent
p2365
ag14
asg16
V30910
p2366
sbsVDeAngelo Williams
p2367
(i__main__
Player
p2368
(dp2369
g7
(lp2370
VRB
p2371
ag2367
aV86790
p2372
aV25
p2373
aV6
p2374
aV5200
p2375
aF4.5
aV6
p2376
aI00
aI2
aVFinger
p2377
aVrecent
p2378
aVinactive
p2379
asg16
V6732
p2380
sbsVBuffalo Bills
p2381
(i__main__
Player
p2382
(dp2383
g7
(lp2384
VD
p2385
ag2381
aV86789
p2386
aV4
p2387
aV1000
p2388
aV4800
p2389
aI0
aI0
aI00
aI4
ag14
aVnone
p2390
ag14
asg16
V12526
p2391
sbsVDa'Rick Rogers
p2392
(i__main__
Player
p2393
(dp2394
g7
(lp2395
VWR
p2396
ag2392
aV86793
p2397
aV10
p2398
aV1000
p2399
aV4500
p2400
aI0
aI0
aI00
aI0
ag14
aVold
p2401
ag14
asg16
V39521
p2402
sbsVAce Sanders
p2403
(i__main__
Player
p2404
(dp2405
g7
(lp2406
VWR
p2407
ag2403
aV86788
p2408
aV12
p2409
aV1000
p2410
aV4500
p2411
aI1
aV9
p2412
aI00
aI0
ag14
aVold
p2413
ag14
asg16
V30591
p2414
sbsVChris Johnson
p2415
(i__main__
Player
p2416
(dp2417
g7
(lp2418
VRB
p2419
ag2415
aV86798
p2420
aV1
p2421
aV7
p2422
aV5300
p2423
aF7.1
aV13
p2424
aI00
aI2
aVKnee
p2425
aVbreaking
p2426
aVprobable
p2427
asg16
V6566
p2428
sbsVJonas Gray
p2429
(i__main__
Player
p2430
(dp2431
g7
(lp2432
VRB
p2433
ag2429
aV86795
p2434
aV3
p2435
aV1000
p2436
aV5300
p2437
aF9.8
aV6
p2438
aI00
aI0
ag14
aVold
p2439
ag14
asg16
V22774
p2440
sbsVIke Ariguzo
p2441
(i__main__
Player
p2442
(dp2443
g7
(lp2444
VWR
p2445
ag2441
aV86910
p2446
aV23
p2447
aV1000
p2448
aV4500
p2449
aI0
aI0
aI00
aI0
ag14
aVnone
p2450
ag14
asg16
V59895
p2451
sbsVChandler Catanzaro
p2452
(i__main__
Player
p2453
(dp2454
g7
(lp2455
VK
p2456
ag2452
aV86786
p2457
aV29
p2458
aV1000
p2459
aV4700
p2460
aF7.8
aV13
p2461
aI00
aI4
ag14
aVrecent
p2462
ag14
asg16
V24569
p2463
sbsVLance Dunbar
p2464
(i__main__
Player
p2465
(dp2466
g7
(lp2467
VRB
p2468
ag2464
aV86800
p2469
aV18
p2470
aV1000
p2471
aV4800
p2472
aF2.7
aV13
p2473
aI00
aI0
ag14
aVold
p2474
ag14
asg16
V22292
p2475
sbsVZach Ertz
p2476
(i__main__
Player
p2477
(dp2478
g7
(lp2479
VTE
p2480
ag2476
aV86800
p2481
aV19
p2482
aV1000
p2483
aV5100
p2484
aF6.5
aV13
p2485
aI00
aI0
ag14
aVbreaking
p2486
ag14
asg16
V29780
p2487
sbsVMarqise Lee
p2488
(i__main__
Player
p2489
(dp2490
g7
(lp2491
VWR
p2492
ag2488
aV86788
p2493
aV12
p2494
aV1000
p2495
aV5800
p2496
aF5.4
aV10
p2497
aI00
aI0
ag14
aVbreaking
p2498
ag14
asg16
V29593
p2499
sbsVPhillip Supernaw
p2500
(i__main__
Player
p2501
(dp2502
g7
(lp2503
VTE
p2504
ag2500
aV86788
p2505
aV6
p2506
aV1000
p2507
aV4500
p2508
aF0.8
aV6
p2509
aI00
aI0
ag14
aVrecent
p2510
ag14
asg16
V23003
p2511
sbsVTrindon Holliday
p2512
(i__main__
Player
p2513
(dp2514
g7
(lp2515
VWR
p2516
ag2512
aV86790
p2517
aV26
p2518
aV1000
p2519
aV4500
p2520
aF3.4
aV1
p2521
aI00
aI2
aVHamstring
p2522
aVold
p2523
aVIR
p2524
asg16
V11622
p2525
sbsVJoe Webb
p2526
(i__main__
Player
p2527
(dp2528
g7
(lp2529
VQB
p2530
ag2526
aV86790
p2531
aV25
p2532
aV1000
p2533
aV5000
p2534
aF5.4
aV5
p2535
aI00
aI0
ag14
aVold
p2536
ag14
asg16
V11615
p2537
sbsVRichard Rodgers
p2538
(i__main__
Player
p2539
(dp2540
g7
(lp2541
VTE
p2542
ag2538
aV86910
p2543
aV23
p2544
aV1000
p2545
aV5000
p2546
aI3
aV12
p2547
aI00
aI0
ag14
aVrecent
p2548
ag14
asg16
V29314
p2549
sbsVDarren Fells
p2550
(i__main__
Player
p2551
(dp2552
g7
(lp2553
VTE
p2554
ag2550
aV86786
p2555
aV29
p2556
aV1000
p2557
aV4500
p2558
aI0
aV7
p2559
aI00
aI0
ag14
aVnone
p2560
ag14
asg16
V38301
p2561
sbsVAntonio Andrews
p2562
(i__main__
Player
p2563
(dp2564
g7
(lp2565
VRB
p2566
ag2562
aV86798
p2567
aV9
p2568
aV1000
p2569
aV4500
p2570
aI0
aV2
p2571
aI00
aI0
ag14
aVold
p2572
ag14
asg16
V47828
p2573
sbsVRyan Nassib
p2574
(i__main__
Player
p2575
(dp2576
g7
(lp2577
VQB
p2578
ag2574
aV86796
p2579
aV17
p2580
aV1000
p2581
aV5000
p2582
aF0.5
aV4
p2583
aI00
aI0
ag14
aVold
p2584
ag14
asg16
V26141
p2585
sbsVCedric Peerman
p2586
(i__main__
Player
p2587
(dp2588
g7
(lp2589
VRB
p2590
ag2586
aV86791
p2591
aV8
p2592
aV1000
p2593
aV4700
p2594
aF0.7
aV13
p2595
aI00
aI0
ag14
aVold
p2596
ag14
asg16
V7718
p2597
sbsVRob Gronkowski
p2598
(i__main__
Player
p2599
(dp2600
g7
(lp2601
VTE
p2602
ag2598
aV86795
p2603
aV3
p2604
aV1000
p2605
aV7600
p2606
aF15.1
aV13
p2607
aI00
aI4
ag14
aVbreaking
p2608
ag14
asg16
V11460
p2609
sbsVAntonio Brown
p2610
(i__main__
Player
p2611
(dp2612
g7
(lp2613
VWR
p2614
ag2610
aV86787
p2615
aV5
p2616
aV1000
p2617
aV9100
p2618
aI20
aV13
p2619
aI00
aI0
ag14
aVbreaking
p2620
ag14
asg16
V11612
p2621
sbsVRonnie Brown
p2622
(i__main__
Player
p2623
(dp2624
g7
(lp2625
VRB
p2626
ag2622
aV86797
p2627
aV14
p2628
aV27
p2629
aV4600
p2630
aF1.1
aV7
p2631
aI00
aI2
ag14
aVold
p2632
aVinactive
p2633
asg16
V6530
p2634
sbsVJohn Kuhn
p2635
(i__main__
Player
p2636
(dp2637
g7
(lp2638
VRB
p2639
ag2635
aV86910
p2640
aV23
p2641
aV1000
p2642
aV4600
p2643
aF1.2
aV12
p2644
aI00
aI4
ag14
aVold
p2645
ag14
asg16
V7244
p2646
sbsVLouis Murphy
p2647
(i__main__
Player
p2648
(dp2649
g7
(lp2650
VWR
p2651
ag2647
aV86790
p2652
aV26
p2653
aV1000
p2654
aV5500
p2655
aF6.6
aV10
p2656
aI00
aI0
ag14
aVold
p2657
ag14
asg16
V7788
p2658
sbsVMike Williams
p2659
(i__main__
Player
p2660
(dp2661
g7
(lp2662
VWR
p2663
ag2659
aV86789
p2664
aV4
p2665
aV1000
p2666
aV4500
p2667
aF2.7
aV9
p2668
aI00
aI2
aVCalf
p2669
aVrecent
p2670
aVinactive
p2671
asg16
V11519
p2672
sbsVRoddy White
p2673
(i__main__
Player
p2674
(dp2675
g7
(lp2676
VWR
p2677
ag2673
aV86910
p2678
aV27
p2679
aV26
p2680
aV7400
p2681
aF12.4
aV10
p2682
aI00
aI6
aVAnkle
p2683
aVrecent
p2684
aVquestionable
p2685
asg16
V6618
p2686
sbsVMarques Colston
p2687
(i__main__
Player
p2688
(dp2689
g7
(lp2690
VWR
p2691
ag2687
aV86801
p2692
aV28
p2693
aV33
p2694
aV6100
p2695
aF8.4
aV13
p2696
aI00
aI0
ag14
aVbreaking
p2697
ag14
asg16
V6645
p2698
sbsVJarrett Boykin
p2699
(i__main__
Player
p2700
(dp2701
g7
(lp2702
VWR
p2703
ag2699
aV86910
p2704
aV23
p2705
aV1000
p2706
aV4500
p2707
aF0.4
aV9
p2708
aI00
aI0
ag14
aVrecent
p2709
ag14
asg16
V22311
p2710
sbsVTajh Boyd
p2711
(i__main__
Player
p2712
(dp2713
g7
(lp2714
VQB
p2715
ag2711
aV86798
p2716
aV1
p2717
aV1000
p2718
aV5000
p2719
aI0
aI0
aI00
aI0
ag14
aVold
p2720
ag14
asg16
V24669
p2721
sbsVEd Dickson
p2722
(i__main__
Player
p2723
(dp2724
g7
(lp2725
VTE
p2726
ag2722
aV86790
p2727
aV25
p2728
aV1000
p2729
aV4500
p2730
aF0.8
aV13
p2731
aI00
aI0
ag14
aVold
p2732
ag14
asg16
V11488
p2733
sbsVPhiladelphia Eagles
p2734
(i__main__
Player
p2735
(dp2736
g7
(lp2737
VD
p2738
ag2734
aV86800
p2739
aV19
p2740
aV1000
p2741
aV5200
p2742
aI0
aI0
aI00
aI4
ag14
aVnone
p2743
ag14
asg16
V12545
p2744
sbsVVernon Davis
p2745
(i__main__
Player
p2746
(dp2747
g7
(lp2748
VTE
p2749
ag2745
aV86799
p2750
aV30
p2751
aV1000
p2752
aV4800
p2753
aF4.4
aV11
p2754
aI00
aI4
ag14
aVold
p2755
ag14
asg16
V6870
p2756
sbsVMarquess Wilson
p2757
(i__main__
Player
p2758
(dp2759
g7
(lp2760
VWR
p2761
ag2757
aV86801
p2762
aV22
p2763
aV1000
p2764
aV4500
p2765
aF1.6
aV4
p2766
aI00
aI4
ag14
aVrecent
p2767
ag14
asg16
V30108
p2768
sbsVJames Casey
p2769
(i__main__
Player
p2770
(dp2771
g7
(lp2772
VTE
p2773
ag2769
aV86800
p2774
aV19
p2775
aV1000
p2776
aV4500
p2777
aF1.5
aV13
p2778
aI00
aI0
ag14
aVold
p2779
ag14
asg16
V6951
p2780
sbsVMike Glennon
p2781
(i__main__
Player
p2782
(dp2783
g7
(lp2784
VQB
p2785
ag2781
aV86790
p2786
aV26
p2787
aV1000
p2788
aV5000
p2789
aF15.9
aV6
p2790
aI00
aI0
ag14
aVold
p2791
ag14
asg16
V25410
p2792
sbsVBenny Cunningham
p2793
(i__main__
Player
p2794
(dp2795
g7
(lp2796
VRB
p2797
ag2793
aV86786
p2798
aV32
p2799
aV1000
p2800
aV4800
p2801
aF6.9
aV13
p2802
aI00
aI0
ag14
aVrecent
p2803
ag14
asg16
V39649
p2804
sbsVTeddy Bridgewater
p2805
(i__main__
Player
p2806
(dp2807
g7
(lp2808
VQB
p2809
ag2805
aV86792
p2810
aV21
p2811
aV1000
p2812
aV7400
p2813
aF13.8
aV10
p2814
aI00
aI4
ag14
aVbreaking
p2815
ag14
asg16
V33259
p2816
sbsVKenbrell Thompkins
p2817
(i__main__
Player
p2818
(dp2819
g7
(lp2820
VWR
p2821
ag2817
aV86794
p2822
aV15
p2823
aV1000
p2824
aV4500
p2825
aF2.3
aV11
p2826
aI00
aI0
ag14
aVold
p2827
ag14
asg16
V33037
p2828
sbsVLuke McCown
p2829
(i__main__
Player
p2830
(dp2831
g7
(lp2832
VQB
p2833
ag2829
aV86801
p2834
aV28
p2835
aV1000
p2836
aV5000
p2837
aI0
aV13
p2838
aI00
aI0
ag14
aVold
p2839
ag14
asg16
V8051
p2840
sbsVJuwan Thompson
p2841
(i__main__
Player
p2842
(dp2843
g7
(lp2844
VRB
p2845
ag2841
aV86797
p2846
aV13
p2847
aV1000
p2848
aV5200
p2849
aF3.7
aV13
p2850
aI00
aI2
aVKnee
p2851
aVbreaking
p2852
aVprobable
p2853
asg16
V24797
p2854
sbsVDoug Martin
p2855
(i__main__
Player
p2856
(dp2857
g7
(lp2858
VRB
p2859
ag2855
aV86790
p2860
aV26
p2861
aV1000
p2862
aV5300
p2863
aF6.4
aV8
p2864
aI00
aI4
ag14
aVbreaking
p2865
ag14
asg16
V21970
p2866
sbsVVincent Brown
p2867
(i__main__
Player
p2868
(dp2869
g7
(lp2870
VWR
p2871
ag2867
aV86794
p2872
aV15
p2873
aV1000
p2874
aV4500
p2875
aF2.5
aV6
p2876
aI00
aI0
ag14
aVold
p2877
ag14
asg16
V14277
p2878
sbsVLance Kendricks
p2879
(i__main__
Player
p2880
(dp2881
g7
(lp2882
VTE
p2883
ag2879
aV86786
p2884
aV32
p2885
aV1000
p2886
aV4600
p2887
aF4.2
aV13
p2888
aI00
aI4
ag14
aVold
p2889
ag14
asg16
V14240
p2890
sbsVA.J. Green
p2891
(i__main__
Player
p2892
(dp2893
g7
(lp2894
VWR
p2895
ag2891
aV86791
p2896
aV8
p2897
aV1000
p2898
aV9000
p2899
aF15.3
aV10
p2900
aI00
aI2
aVThigh
p2901
aVbreaking
p2902
aVprobable
p2903
asg16
V14187
p2904
sbsVNate Washington
p2905
(i__main__
Player
p2906
(dp2907
g7
(lp2908
VWR
p2909
ag2905
aV86798
p2910
aV9
p2911
aV1000
p2912
aV6500
p2913
aF6.2
aV13
p2914
aI00
aI4
ag14
aVbreaking
p2915
ag14
asg16
V6610
p2916
sbsVMatthew Mulligan
p2917
(i__main__
Player
p2918
(dp2919
g7
(lp2920
VTE
p2921
ag2917
aV86786
p2922
aV29
p2923
aV1000
p2924
aV4500
p2925
aI0
aV2
p2926
aI00
aI0
ag14
aVold
p2927
ag14
asg16
V7918
p2928
sbsVDavid Johnson
p2929
(i__main__
Player
p2930
(dp2931
g7
(lp2932
VTE
p2933
ag2929
aV86797
p2934
aV14
p2935
aV1000
p2936
aV4500
p2937
aF0.1
aV11
p2938
aI00
aI2
ag14
aVold
p2939
aVinactive
p2940
asg16
V6567
p2941
sbsVRex Burkhead
p2942
(i__main__
Player
p2943
(dp2944
g7
(lp2945
VRB
p2946
ag2942
aV86791
p2947
aV8
p2948
aV1000
p2949
aV4500
p2950
aF1.6
aV6
p2951
aI00
aI0
ag14
aVold
p2952
ag14
asg16
V27338
p2953
sbsVHenry Hynoski
p2954
(i__main__
Player
p2955
(dp2956
g7
(lp2957
VRB
p2958
ag2954
aV86796
p2959
aV17
p2960
aV1000
p2961
aV4500
p2962
aF0.1
aV13
p2963
aI00
aI4
ag14
aVold
p2964
ag14
asg16
V15032
p2965
sbsVTarvaris Jackson
p2966
(i__main__
Player
p2967
(dp2968
g7
(lp2969
VQB
p2970
ag2966
aV86799
p2971
aV31
p2972
aV1000
p2973
aV5000
p2974
aF16.1
aV1
p2975
aI00
aI0
ag14
aVold
p2976
ag14
asg16
V6814
p2977
sbsVRobert Griffin III
p2978
(i__main__
Player
p2979
(dp2980
g7
(lp2981
VQB
p2982
ag2978
aV86796
p2983
aV20
p2984
aV1000
p2985
aV6600
p2986
aF7.8
aV6
p2987
aI00
aI0
ag14
aVbreaking
p2988
ag14
asg16
V21941
p2989
sbsVTom Savage
p2990
(i__main__
Player
p2991
(dp2992
g7
(lp2993
VQB
p2994
ag2990
aV86793
p2995
aV11
p2996
aV1000
p2997
aV5000
p2998
aF-0.2
aV1
p2999
aI00
aI0
ag14
aVrecent
p3000
ag14
asg16
V25969
p3001
sbsVCecil Shorts
p3002
(i__main__
Player
p3003
(dp3004
g7
(lp3005
VWR
p3006
ag3002
aV86788
p3007
aV12
p3008
aV1000
p3009
aV5300
p3010
aF6.6
aV10
p3011
aI00
aI0
ag14
aVbreaking
p3012
ag14
asg16
V14307
p3013
sbsVDamien Williams
p3014
(i__main__
Player
p3015
(dp3016
g7
(lp3017
VRB
p3018
ag3014
aV86795
p3019
aV2
p3020
aV1000
p3021
aV4500
p3022
aI2
aV13
p3023
aI00
aI0
ag14
aVold
p3024
ag14
asg16
V27441
p3025
sbsVDarrel Young
p3026
(i__main__
Player
p3027
(dp3028
g7
(lp3029
VRB
p3030
ag3026
aV86796
p3031
aV20
p3032
aV1000
p3033
aV4800
p3034
aF2.3
aV13
p3035
aI00
aI4
ag14
aVold
p3036
ag14
asg16
V10695
p3037
sbsVEdwin Baker
p3038
(i__main__
Player
p3039
(dp3040
g7
(lp3041
VRB
p3042
ag3038
aV86801
p3043
aV28
p3044
aV1000
p3045
aV4500
p3046
aF3.3
aV3
p3047
aI00
aI0
ag14
aVold
p3048
ag14
asg16
V22191
p3049
sbsVJosh Gordon
p3050
(i__main__
Player
p3051
(dp3052
g7
(lp3053
VWR
p3054
ag3050
aV86791
p3055
aV7
p3056
aV1000
p3057
aV7800
p3058
aF12.8
aV3
p3059
aI00
aI0
ag14
aVbreaking
p3060
ag14
asg16
V23194
p3061
sbsVEddie Royal
p3062
(i__main__
Player
p3063
(dp3064
g7
(lp3065
VWR
p3066
ag3062
aV86797
p3067
aV14
p3068
aV74
p3069
aV5900
p3070
aF8.8
aV13
p3071
aI00
aI0
ag14
aVbreaking
p3072
ag14
asg16
V6768
p3073
sbsVKnile Davis
p3074
(i__main__
Player
p3075
(dp3076
g7
(lp3077
VRB
p3078
ag3074
aV86794
p3079
aV16
p3080
aV1000
p3081
aV5300
p3082
aF6.8
aV13
p3083
aI00
aI0
ag14
aVrecent
p3084
ag14
asg16
V31073
p3085
sbsVMark Sanchez
p3086
(i__main__
Player
p3087
(dp3088
g7
(lp3089
VQB
p3090
ag3086
aV86800
p3091
aV19
p3092
aV1000
p3093
aV7500
p3094
aF16.6
aV6
p3095
aI00
aI4
ag14
aVbreaking
p3096
ag14
asg16
V6687
p3097
sbsVMatt Flynn
p3098
(i__main__
Player
p3099
(dp3100
g7
(lp3101
VQB
p3102
ag3098
aV86910
p3103
aV23
p3104
aV1000
p3105
aV5000
p3106
aF-0.3
aV5
p3107
aI00
aI0
ag14
aVold
p3108
ag14
asg16
V7053
p3109
sbsVCalvin Johnson
p3110
(i__main__
Player
p3111
(dp3112
g7
(lp3113
VWR
p3114
ag3110
aV86792
p3115
aV24
p3116
aV14
p3117
aV9400
p3118
aF15.3
aV10
p3119
aI00
aI2
aVAnkle
p3120
aVbreaking
p3121
aVprobable
p3122
asg16
V6655
p3123
sbsVAdam Thielen
p3124
(i__main__
Player
p3125
(dp3126
g7
(lp3127
VWR
p3128
ag3124
aV86792
p3129
aV21
p3130
aV1000
p3131
aV4500
p3132
aF0.6
aV13
p3133
aI00
aI0
ag14
aVold
p3134
ag14
asg16
V39716
p3135
sbsVJohnny Manziel
p3136
(i__main__
Player
p3137
(dp3138
g7
(lp3139
VQB
p3140
ag3136
aV86791
p3141
aV7
p3142
aV1000
p3143
aV6700
p3144
aF3.3
aV3
p3145
aI00
aI0
ag14
aVrecent
p3146
ag14
asg16
V32415
p3147
sbsVJay Feely
p3148
(i__main__
Player
p3149
(dp3150
g7
(lp3151
VK
p3152
ag3148
aV86801
p3153
aV22
p3154
aV1000
p3155
aV4500
p3156
aI2
aV1
p3157
aI00
aI0
ag14
aVrecent
p3158
ag14
asg16
V6692
p3159
sbsVDeMarco Sampson
p3160
(i__main__
Player
p3161
(dp3162
g7
(lp3163
VWR
p3164
ag3160
aV86799
p3165
aV30
p3166
aV1000
p3167
aV4500
p3168
aI0
aI0
aI00
aI0
ag14
aVnone
p3169
ag14
asg16
V14437
p3170
sbsVBaltimore Ravens
p3171
(i__main__
Player
p3172
(dp3173
g7
(lp3174
VD
p3175
ag3171
aV86788
p3176
aV6
p3177
aV1000
p3178
aV5300
p3179
aI0
aI0
aI00
aI4
ag14
aVnone
p3180
ag14
asg16
V12555
p3181
sbsVLeonard Hankerson
p3182
(i__main__
Player
p3183
(dp3184
g7
(lp3185
VWR
p3186
ag3182
aV86796
p3187
aV20
p3188
aV1000
p3189
aV4500
p3190
aF0.5
aV1
p3191
aI00
aI0
ag14
aVold
p3192
ag14
asg16
V14283
p3193
sbsVOrleans Darkwa
p3194
(i__main__
Player
p3195
(dp3196
g7
(lp3197
VRB
p3198
ag3194
aV86796
p3199
aV17
p3200
aV1000
p3201
aV4500
p3202
aF0.6
aV8
p3203
aI00
aI0
ag14
aVrecent
p3204
ag14
asg16
V33691
p3205
sbsVMarquise Goodwin
p3206
(i__main__
Player
p3207
(dp3208
g7
(lp3209
VWR
p3210
ag3206
aV86789
p3211
aV4
p3212
aV1000
p3213
aV4500
p3214
aF0.7
aV8
p3215
aI00
aI0
ag14
aVold
p3216
ag14
asg16
V32243
p3217
sbsVCordarrelle Patterson
p3218
(i__main__
Player
p3219
(dp3220
g7
(lp3221
VWR
p3222
ag3218
aV86792
p3223
aV21
p3224
aV1000
p3225
aV4900
p3226
aF5.5
aV13
p3227
aI00
aI0
ag14
aVrecent
p3228
ag14
asg16
V30733
p3229
sbsVPittsburgh Steelers
p3230
(i__main__
Player
p3231
(dp3232
g7
(lp3233
VD
p3234
ag3230
aV86787
p3235
aV5
p3236
aV1000
p3237
aV4800
p3238
aI0
aI0
aI00
aI4
ag14
aVnone
p3239
ag14
asg16
V12547
p3240
sbsVJordan Todman
p3241
(i__main__
Player
p3242
(dp3243
g7
(lp3244
VRB
p3245
ag3241
aV86788
p3246
aV12
p3247
aV1000
p3248
aV4500
p3249
aF2.1
aV13
p3250
aI00
aI0
ag14
aVold
p3251
ag14
asg16
V14369
p3252
sbsVReggie Wayne
p3253
(i__main__
Player
p3254
(dp3255
g7
(lp3256
VWR
p3257
ag3253
aV86793
p3258
aV10
p3259
aV24
p3260
aV6200
p3261
aF8.6
aV12
p3262
aI00
aI2
aVTriceps
p3263
aVbreaking
p3264
aVprobable
p3265
asg16
V6662
p3266
sbsVShane Vereen
p3267
(i__main__
Player
p3268
(dp3269
g7
(lp3270
VRB
p3271
ag3267
aV86795
p3272
aV3
p3273
aV1000
p3274
aV5700
p3275
aF9.5
aV13
p3276
aI00
aI2
aVAnkle
p3277
aVbreaking
p3278
aVprobable
p3279
asg16
V14245
p3280
sbsVGator Hoskins
p3281
(i__main__
Player
p3282
(dp3283
g7
(lp3284
VTE
p3285
ag3281
aV86795
p3286
aV2
p3287
aV1000
p3288
aV4500
p3289
aF0.4
aV10
p3290
aI00
aI0
ag14
aVold
p3291
ag14
asg16
V33971
p3292
sbsVBishop Sankey
p3293
(i__main__
Player
p3294
(dp3295
g7
(lp3296
VRB
p3297
ag3293
aV86798
p3298
aV9
p3299
aV1000
p3300
aV5100
p3301
aI6
aV13
p3302
aI00
aI0
ag14
aVbreaking
p3303
ag14
asg16
V29991
p3304
sbsVJordan Matthews
p3305
(i__main__
Player
p3306
(dp3307
g7
(lp3308
VWR
p3309
ag3305
aV86800
p3310
aV19
p3311
aV1000
p3312
aV7000
p3313
aF10.8
aV13
p3314
aI00
aI4
ag14
aVbreaking
p3315
ag14
asg16
V30837
p3316
sbsVGeno Smith
p3317
(i__main__
Player
p3318
(dp3319
g7
(lp3320
VQB
p3321
ag3317
aV86798
p3322
aV1
p3323
aV1000
p3324
aV6600
p3325
aF10.2
aV11
p3326
aI00
aI4
ag14
aVbreaking
p3327
ag14
asg16
V26483
p3328
sbsVMichael Floyd
p3329
(i__main__
Player
p3330
(dp3331
g7
(lp3332
VWR
p3333
ag3329
aV86786
p3334
aV29
p3335
aV1000
p3336
aV6400
p3337
aF7.6
aV13
p3338
aI00
aI4
ag14
aVbreaking
p3339
ag14
asg16
V21952
p3340
sbsVCharcandrick West
p3341
(i__main__
Player
p3342
(dp3343
g7
(lp3344
VRB
p3345
ag3341
aV86794
p3346
aV16
p3347
aV1000
p3348
aV4500
p3349
aI0
aV4
p3350
aI00
aI0
ag14
aVold
p3351
ag14
asg16
V54687
p3352
sbsVC.J. Fiedorowicz
p3353
(i__main__
Player
p3354
(dp3355
g7
(lp3356
VTE
p3357
ag3353
aV86793
p3358
aV11
p3359
aV1000
p3360
aV4500
p3361
aF0.2
aV12
p3362
aI00
aI0
ag14
aVbreaking
p3363
ag14
asg16
V27908
p3364
sbsVRonnie Hillman
p3365
(i__main__
Player
p3366
(dp3367
g7
(lp3368
VRB
p3369
ag3365
aV86797
p3370
aV13
p3371
aV1000
p3372
aV5500
p3373
aF12.2
aV7
p3374
aI00
aI2
aVFoot
p3375
aVrecent
p3376
aVinactive
p3377
asg16
V22003
p3378
sbsVKassim Osgood
p3379
(i__main__
Player
p3380
(dp3381
g7
(lp3382
VWR
p3383
ag3379
aV86799
p3384
aV30
p3385
aV1000
p3386
aV4500
p3387
aI0
aV12
p3388
aI00
aI0
ag14
aVold
p3389
ag14
asg16
V7956
p3390
sbsVRyan Succop
p3391
(i__main__
Player
p3392
(dp3393
g7
(lp3394
VK
p3395
ag3391
aV86798
p3396
aV9
p3397
aV1000
p3398
aV4500
p3399
aF5.2
aV13
p3400
aI00
aI4
ag14
aVold
p3401
ag14
asg16
V6767
p3402
sbsVColin Kaepernick
p3403
(i__main__
Player
p3404
(dp3405
g7
(lp3406
VQB
p3407
ag3403
aV86799
p3408
aV30
p3409
aV1000
p3410
aV6800
p3411
aF15.4
aV13
p3412
aI00
aI4
ag14
aVbreaking
p3413
ag14
asg16
V14231
p3414
sbsVT.J. Graham
p3415
(i__main__
Player
p3416
(dp3417
g7
(lp3418
VWR
p3419
ag3415
aV86798
p3420
aV1
p3421
aV1000
p3422
aV4500
p3423
aF1.8
aV9
p3424
aI00
aI0
ag14
aVold
p3425
ag14
asg16
V22002
p3426
sbsVMichael Vick
p3427
(i__main__
Player
p3428
(dp3429
g7
(lp3430
VQB
p3431
ag3427
aV86798
p3432
aV1
p3433
aV1000
p3434
aV6500
p3435
aF5.1
aV9
p3436
aI00
aI0
ag14
aVold
p3437
ag14
asg16
V8118
p3438
sbsVAustin Pettis
p3439
(i__main__
Player
p3440
(dp3441
g7
(lp3442
VWR
p3443
ag3439
aV86786
p3444
aV32
p3445
aV1000
p3446
aV4900
p3447
aF4.8
aV5
p3448
aI00
aI0
ag14
aVold
p3449
ag14
asg16
V14265
p3450
sbsVSan Francisco 49ers
p3451
(i__main__
Player
p3452
(dp3453
g7
(lp3454
VD
p3455
ag3451
aV86799
p3456
aV30
p3457
aV1000
p3458
aV4900
p3459
aI0
aI0
aI00
aI4
ag14
aVnone
p3460
ag14
asg16
V12549
p3461
sbsVKamar Aiken
p3462
(i__main__
Player
p3463
(dp3464
g7
(lp3465
VWR
p3466
ag3462
aV86788
p3467
aV6
p3468
aV1000
p3469
aV5400
p3470
aF3.7
aV13
p3471
aI00
aI0
ag14
aVold
p3472
ag14
asg16
V14905
p3473
sbsVMatt Bryant
p3474
(i__main__
Player
p3475
(dp3476
g7
(lp3477
VK
p3478
ag3474
aV86910
p3479
aV27
p3480
aV1000
p3481
aV4800
p3482
aF9.5
aV12
p3483
aI00
aI0
ag14
aVold
p3484
ag14
asg16
V10647
p3485
sbsVTim Wright
p3486
(i__main__
Player
p3487
(dp3488
g7
(lp3489
VTE
p3490
ag3486
aV86795
p3491
aV3
p3492
aV1000
p3493
aV4800
p3494
aF5.5
aV13
p3495
aI00
aI0
ag14
aVrecent
p3496
ag14
asg16
V26074
p3497
sbsVMichael Hoomanawanui
p3498
(i__main__
Player
p3499
(dp3500
g7
(lp3501
VTE
p3502
ag3498
aV86795
p3503
aV3
p3504
aV1000
p3505
aV4500
p3506
aF0.5
aV13
p3507
aI00
aI0
ag14
aVold
p3508
ag14
asg16
V11556
p3509
sbsVTom Brady
p3510
(i__main__
Player
p3511
(dp3512
g7
(lp3513
VQB
p3514
ag3510
aV86795
p3515
aV3
p3516
aV16
p3517
aV9600
p3518
aF19.3
aV13
p3519
aI00
aI6
aVAnkle
p3520
aVbreaking
p3521
aVprobable
p3522
asg16
V6498
p3523
sbsVJoseph Fauria
p3524
(i__main__
Player
p3525
(dp3526
g7
(lp3527
VTE
p3528
ag3524
aV86792
p3529
aV24
p3530
aV1000
p3531
aV4800
p3532
aF2.6
aV7
p3533
aI00
aI0
ag14
aVbreaking
p3534
ag14
asg16
V29827
p3535
sbsVGreg Jennings
p3536
(i__main__
Player
p3537
(dp3538
g7
(lp3539
VWR
p3540
ag3536
aV86792
p3541
aV21
p3542
aV23
p3543
aV6200
p3544
aF8.4
aV13
p3545
aI00
aI4
ag14
aVold
p3546
ag14
asg16
V6896
p3547
sbsVJacob Tamme
p3548
(i__main__
Player
p3549
(dp3550
g7
(lp3551
VTE
p3552
ag3548
aV86797
p3553
aV13
p3554
aV1000
p3555
aV4600
p3556
aI2
aV13
p3557
aI00
aI2
aVRibs
p3558
aVbreaking
p3559
aVprobable
p3560
asg16
V6664
p3561
sbsVChris Gragg
p3562
(i__main__
Player
p3563
(dp3564
g7
(lp3565
VTE
p3566
ag3562
aV86789
p3567
aV4
p3568
aV1000
p3569
aV4500
p3570
aF1.4
aV10
p3571
aI00
aI2
aVKnee
p3572
aVold
p3573
aVinactive
p3574
asg16
V31188
p3575
sbsVLarry Fitzgerald
p3576
(i__main__
Player
p3577
(dp3578
g7
(lp3579
VWR
p3580
ag3576
aV86786
p3581
aV29
p3582
aV9
p3583
aV6400
p3584
aF9.5
aV11
p3585
aI00
aI2
aVKnee
p3586
aVbreaking
p3587
aVprobable
p3588
asg16
V6883
p3589
sbsVAndrew Quarless
p3590
(i__main__
Player
p3591
(dp3592
g7
(lp3593
VTE
p3594
ag3590
aV86910
p3595
aV23
p3596
aV1000
p3597
aV4900
p3598
aF4.5
aV12
p3599
aI00
aI4
ag14
aVrecent
p3600
ag14
asg16
V11562
p3601
sbsVDeVier Posey
p3602
(i__main__
Player
p3603
(dp3604
g7
(lp3605
VWR
p3606
ag3602
aV86793
p3607
aV11
p3608
aV1000
p3609
aV4500
p3610
aI0
aI0
aI00
aI2
ag14
aVold
p3611
aVinactive
p3612
asg16
V22010
p3613
sbsVDevin Hester
p3614
(i__main__
Player
p3615
(dp3616
g7
(lp3617
VWR
p3618
ag3614
aV86910
p3619
aV27
p3620
aV102
p3621
aV4900
p3622
aF5.8
aV12
p3623
aI00
aI0
ag14
aVold
p3624
ag14
asg16
V6904
p3625
sbsVAndre Williams
p3626
(i__main__
Player
p3627
(dp3628
g7
(lp3629
VRB
p3630
ag3626
aV86796
p3631
aV17
p3632
aV1000
p3633
aV6900
p3634
aF8.1
aV13
p3635
aI00
aI0
ag14
aVbreaking
p3636
ag14
asg16
V25694
p3637
sbsVPhilip Rivers
p3638
(i__main__
Player
p3639
(dp3640
g7
(lp3641
VQB
p3642
ag3638
aV86797
p3643
aV14
p3644
aV42
p3645
aV8200
p3646
aF18.2
aV13
p3647
aI00
aI6
aVChest
p3648
aVbreaking
p3649
aVprobable
p3650
asg16
V7968
p3651
sbsVCorey Washington
p3652
(i__main__
Player
p3653
(dp3654
g7
(lp3655
VWR
p3656
ag3652
aV86796
p3657
aV17
p3658
aV1000
p3659
aV4500
p3660
aF1.1
aV12
p3661
aI00
aI0
ag14
aVold
p3662
ag14
asg16
V54698
p3663
sbsVDez Bryant
p3664
(i__main__
Player
p3665
(dp3666
g7
(lp3667
VWR
p3668
ag3664
aV86800
p3669
aV18
p3670
aV1000
p3671
aV8500
p3672
aF15.4
aV13
p3673
aI00
aI0
ag14
aVrecent
p3674
ag14
asg16
V11435
p3675
sbsVVincent Jackson
p3676
(i__main__
Player
p3677
(dp3678
g7
(lp3679
VWR
p3680
ag3676
aV86790
p3681
aV26
p3682
aV55
p3683
aV6900
p3684
aF9.7
aV13
p3685
aI00
aI0
ag14
aVbreaking
p3686
ag14
asg16
V7953
p3687
sbsVChase Daniel
p3688
(i__main__
Player
p3689
(dp3690
g7
(lp3691
VQB
p3692
ag3688
aV86794
p3693
aV16
p3694
aV1000
p3695
aV5000
p3696
aF18.1
aV1
p3697
aI00
aI0
ag14
aVold
p3698
ag14
asg16
V8803
p3699
sbsVKellen Clemens
p3700
(i__main__
Player
p3701
(dp3702
g7
(lp3703
VQB
p3704
ag3700
aV86797
p3705
aV14
p3706
aV1000
p3707
aV5000
p3708
aF3.4
aV2
p3709
aI00
aI0
ag14
aVold
p3710
ag14
asg16
V7919
p3711
sbsVMike James
p3712
(i__main__
Player
p3713
(dp3714
g7
(lp3715
VRB
p3716
ag3712
aV86790
p3717
aV26
p3718
aV1000
p3719
aV4700
p3720
aF0.4
aV10
p3721
aI00
aI0
ag14
aVold
p3722
ag14
asg16
V25783
p3723
sbsVColt McCoy
p3724
(i__main__
Player
p3725
(dp3726
g7
(lp3727
VQB
p3728
ag3724
aV86796
p3729
aV20
p3730
aV1000
p3731
aV6600
p3732
aF15.5
aV4
p3733
aI00
aI6
aVNeck
p3734
aVbreaking
p3735
aVquestionable
p3736
asg16
V11500
p3737
sbsVStephen Hill
p3738
(i__main__
Player
p3739
(dp3740
g7
(lp3741
VWR
p3742
ag3738
aV86790
p3743
aV25
p3744
aV1000
p3745
aV4500
p3746
aI0
aI0
aI00
aI0
ag14
aVold
p3747
ag14
asg16
V21983
p3748
sbsVCorey (Philly) Brown
p3749
(i__main__
Player
p3750
(dp3751
g7
(lp3752
VWR
p3753
ag3749
aV86790
p3754
aV25
p3755
aV1000
p3756
aV5300
p3757
aF5.2
aV10
p3758
aI00
aI2
aVShoulder
p3759
aVbreaking
p3760
aVquestionable
p3761
asg16
V28486
p3762
sbsVDerek Anderson
p3763
(i__main__
Player
p3764
(dp3765
g7
(lp3766
VQB
p3767
ag3763
aV86790
p3768
aV25
p3769
aV1000
p3770
aV5000
p3771
aF6.8
aV5
p3772
aI00
aI0
ag14
aVold
p3773
ag14
asg16
V6373
p3774
sbsVCincinnati Bengals
p3775
(i__main__
Player
p3776
(dp3777
g7
(lp3778
VD
p3779
ag3775
aV86791
p3780
aV8
p3781
aV1000
p3782
aV4800
p3783
aI0
aI0
aI00
aI4
ag14
aVnone
p3784
ag14
asg16
V12528
p3785
sbsVAnquan Boldin
p3786
(i__main__
Player
p3787
(dp3788
g7
(lp3789
VWR
p3790
ag3786
aV86799
p3791
aV30
p3792
aV28
p3793
aV6900
p3794
aF11.5
aV13
p3795
aI00
aI0
ag14
aVbreaking
p3796
ag14
asg16
V6479
p3797
sbsVEric Decker
p3798
(i__main__
Player
p3799
(dp3800
g7
(lp3801
VWR
p3802
ag3798
aV86798
p3803
aV1
p3804
aV1000
p3805
aV6000
p3806
aF9.5
aV12
p3807
aI00
aI0
ag14
aVbreaking
p3808
ag14
asg16
V11501
p3809
sbsVLarry Donnell
p3810
(i__main__
Player
p3811
(dp3812
g7
(lp3813
VTE
p3814
ag3810
aV86796
p3815
aV17
p3816
aV1000
p3817
aV5200
p3818
aF8.5
aV13
p3819
aI00
aI4
ag14
aVrecent
p3820
ag14
asg16
V21123
p3821
sbsVDavid Nelson
p3822
(i__main__
Player
p3823
(dp3824
g7
(lp3825
VWR
p3826
ag3822
aV86798
p3827
aV1
p3828
aV1000
p3829
aV4500
p3830
aF1.8
aV6
p3831
aI00
aI0
ag14
aVold
p3832
ag14
asg16
V11718
p3833
sbsVMarkus Wheaton
p3834
(i__main__
Player
p3835
(dp3836
g7
(lp3837
VWR
p3838
ag3834
aV86787
p3839
aV5
p3840
aV1000
p3841
aV5300
p3842
aF6.8
aV13
p3843
aI00
aI4
ag14
aVrecent
p3844
ag14
asg16
V29500
p3845
sbsVShonn Greene
p3846
(i__main__
Player
p3847
(dp3848
g7
(lp3849
VRB
p3850
ag3846
aV86798
p3851
aV9
p3852
aV1000
p3853
aV4600
p3854
aF3.2
aV10
p3855
aI00
aI2
aVCoach's Decision
p3856
aVbreaking
p3857
aVinactive
p3858
asg16
V7922
p3859
sbsVLeon Washington
p3860
(i__main__
Player
p3861
(dp3862
g7
(lp3863
VRB
p3864
ag3860
aV86798
p3865
aV9
p3866
aV133
p3867
aV4700
p3868
aF2.1
aV13
p3869
aI00
aI0
ag14
aVold
p3870
ag14
asg16
V6685
p3871
sbsVTaylor Sloat
p3872
(i__main__
Player
p3873
(dp3874
g7
(lp3875
VTE
p3876
ag3872
aV86790
p3877
aV26
p3878
aV1000
p3879
aV4500
p3880
aI0
aI0
aI00
aI0
ag14
aVnone
p3881
ag14
asg16
V59424
p3882
sbsVCobi Hamilton
p3883
(i__main__
Player
p3884
(dp3885
g7
(lp3886
VWR
p3887
ag3883
aV86791
p3888
aV8
p3889
aV1000
p3890
aV4500
p3891
aI0
aI0
aI00
aI0
ag14
aVold
p3892
ag14
asg16
V31157
p3893
sbsVMarlon Brown
p3894
(i__main__
Player
p3895
(dp3896
g7
(lp3897
VWR
p3898
ag3894
aV86788
p3899
aV6
p3900
aV1000
p3901
aV4500
p3902
aF2.2
aV11
p3903
aI00
aI2
aVConcussion
p3904
aVbreaking
p3905
aVprobable
p3906
asg16
V30385
p3907
sbsVMarcus Thigpen
p3908
(i__main__
Player
p3909
(dp3910
g7
(lp3911
VWR
p3912
ag3908
aV86789
p3913
aV4
p3914
aV1000
p3915
aV4500
p3916
aI0
aV6
p3917
aI00
aI0
ag14
aVrecent
p3918
ag14
asg16
V16926
p3919
sbsVChristine Michael
p3920
(i__main__
Player
p3921
(dp3922
g7
(lp3923
VRB
p3924
ag3920
aV86799
p3925
aV31
p3926
aV1000
p3927
aV4700
p3928
aF2.3
aV7
p3929
aI00
aI0
ag14
aVold
p3930
ag14
asg16
V32418
p3931
sbsVMatt Moore
p3932
(i__main__
Player
p3933
(dp3934
g7
(lp3935
VQB
p3936
ag3932
aV86795
p3937
aV2
p3938
aV1000
p3939
aV5000
p3940
aF0.3
aV2
p3941
aI00
aI0
ag14
aVold
p3942
ag14
asg16
V6808
p3943
sbsVRyan Otten
p3944
(i__main__
Player
p3945
(dp3946
g7
(lp3947
VTE
p3948
ag3944
aV86792
p3949
aV21
p3950
aV1000
p3951
aV4500
p3952
aI0
aI0
aI00
aI0
ag14
aVnone
p3953
ag14
asg16
V39502
p3954
sbsVRussell Shepard
p3955
(i__main__
Player
p3956
(dp3957
g7
(lp3958
VWR
p3959
ag3955
aV86790
p3960
aV26
p3961
aV1000
p3962
aV4500
p3963
aF0.3
aV13
p3964
aI00
aI0
ag14
aVold
p3965
ag14
asg16
V31329
p3966
sbsVMarcedes Lewis
p3967
(i__main__
Player
p3968
(dp3969
g7
(lp3970
VTE
p3971
ag3967
aV86788
p3972
aV12
p3973
aV1000
p3974
aV4900
p3975
aF6.2
aV5
p3976
aI00
aI4
ag14
aVbreaking
p3977
ag14
asg16
V6672
p3978
sbsVBrad Smith
p3979
(i__main__
Player
p3980
(dp3981
g7
(lp3982
VWR
p3983
ag3979
aV86800
p3984
aV19
p3985
aV1000
p3986
aV4500
p3987
aF0.2
aV10
p3988
aI00
aI0
ag14
aVold
p3989
ag14
asg16
V6766
p3990
sbsVDe'Anthony Thomas
p3991
(i__main__
Player
p3992
(dp3993
g7
(lp3994
VRB
p3995
ag3991
aV86794
p3996
aV16
p3997
aV1000
p3998
aV4700
p3999
aF3.2
aV9
p4000
aI00
aI0
ag14
aVrecent
p4001
ag14
asg16
V29351
p4002
sbsVTravis Benjamin
p4003
(i__main__
Player
p4004
(dp4005
g7
(lp4006
VWR
p4007
ag4003
aV86791
p4008
aV7
p4009
aV1000
p4010
aV5300
p4011
aF4.4
aV13
p4012
aI00
aI0
ag14
aVbreaking
p4013
ag14
asg16
V22035
p4014
sbsVReggie Bush
p4015
(i__main__
Player
p4016
(dp4017
g7
(lp4018
VRB
p4019
ag4015
aV86792
p4020
aV24
p4021
aV67
p4022
aV5700
p4023
aF7.6
aV8
p4024
aI00
aI2
aVAnkle
p4025
aVbreaking
p4026
aVprobable
p4027
asg16
V6643
p4028
sbsVGerell Robinson
p4029
(i__main__
Player
p4030
(dp4031
g7
(lp4032
VTE
p4033
ag4029
aV86795
p4034
aV2
p4035
aV1000
p4036
aV4500
p4037
aI0
aV1
p4038
aI00
aI0
ag14
aVold
p4039
ag14
asg16
V22213
p4040
sbsVWill Johnson
p4041
(i__main__
Player
p4042
(dp4043
g7
(lp4044
VRB
p4045
ag4041
aV86787
p4046
aV5
p4047
aV1000
p4048
aV4700
p4049
aF0.4
aV13
p4050
aI00
aI4
ag14
aVold
p4051
ag14
asg16
V21547
p4052
sbsVJeremy Maclin
p4053
(i__main__
Player
p4054
(dp4055
g7
(lp4056
VWR
p4057
ag4053
aV86800
p4058
aV19
p4059
aV1000
p4060
aV8000
p4061
aI16
aV13
p4062
aI00
aI0
ag14
aVbreaking
p4063
ag14
asg16
V7283
p4064
sbsVDaniel Thomas
p4065
(i__main__
Player
p4066
(dp4067
g7
(lp4068
VRB
p4069
ag4065
aV86795
p4070
aV2
p4071
aV1000
p4072
aV4900
p4073
aF3.7
aV10
p4074
aI00
aI0
ag14
aVold
p4075
ag14
asg16
V14266
p4076
sbsVStepfan Taylor
p4077
(i__main__
Player
p4078
(dp4079
g7
(lp4080
VRB
p4081
ag4077
aV86786
p4082
aV29
p4083
aV1000
p4084
aV5500
p4085
aF4.2
aV11
p4086
aI00
aI0
ag14
aVbreaking
p4087
ag14
asg16
V29723
p4088
sbsVTampa Bay Buccaneers
p4089
(i__main__
Player
p4090
(dp4091
g7
(lp4092
VD
p4093
ag4089
aV86790
p4094
aV26
p4095
aV1000
p4096
aV4800
p4097
aI0
aI0
aI00
aI4
ag14
aVnone
p4098
ag14
asg16
V12551
p4099
sbsVRyan Taylor
p4100
(i__main__
Player
p4101
(dp4102
g7
(lp4103
VTE
p4104
ag4100
aV86791
p4105
aV7
p4106
aV1000
p4107
aV4500
p4108
aI0
aV11
p4109
aI00
aI0
ag14
aVold
p4110
ag14
asg16
V14411
p4111
sbsVCourtney Roby
p4112
(i__main__
Player
p4113
(dp4114
g7
(lp4115
VWR
p4116
ag4112
aV86910
p4117
aV27
p4118
aV1000
p4119
aV4500
p4120
aF0.4
aV4
p4121
aI00
aI0
ag14
aVold
p4122
ag14
asg16
V8104
p4123
sbsVJulian Edelman
p4124
(i__main__
Player
p4125
(dp4126
g7
(lp4127
VWR
p4128
ag4124
aV86795
p4129
aV3
p4130
aV1000
p4131
aV7000
p4132
aF12.6
aV13
p4133
aI00
aI2
aVThigh
p4134
aVbreaking
p4135
aVprobable
p4136
asg16
V7859
p4137
sbsVBilly Cundiff
p4138
(i__main__
Player
p4139
(dp4140
g7
(lp4141
VK
p4142
ag4138
aV86791
p4143
aV7
p4144
aV1000
p4145
aV4700
p4146
aF7.8
aV13
p4147
aI00
aI4
ag14
aVbreaking
p4148
ag14
asg16
V8770
p4149
sbsVDonnie Avery
p4150
(i__main__
Player
p4151
(dp4152
g7
(lp4153
VWR
p4154
ag4150
aV86794
p4155
aV16
p4156
aV108
p4157
aV4500
p4158
aF3.9
aV6
p4159
aI00
aI6
aVGroin
p4160
aVbreaking
p4161
aVprobable
p4162
asg16
V6389
p4163
sbsVDan Orlovsky
p4164
(i__main__
Player
p4165
(dp4166
g7
(lp4167
VQB
p4168
ag4164
aV86792
p4169
aV24
p4170
aV1000
p4171
aV5000
p4172
aI0
aI0
aI00
aI0
ag14
aVold
p4173
ag14
asg16
V8071
p4174
sbsVMaurice Jones-Drew
p4175
(i__main__
Player
p4176
(dp4177
g7
(lp4178
VRB
p4179
ag4175
aV86794
p4180
aV15
p4181
aV3
p4182
aV4800
p4183
aI2
aV11
p4184
aI00
aI0
ag14
aVbreaking
p4185
ag14
asg16
V6669
p4186
sbsVLance Moore
p4187
(i__main__
Player
p4188
(dp4189
g7
(lp4190
VWR
p4191
ag4187
aV86787
p4192
aV5
p4193
aV93
p4194
aV4700
p4195
aF3.7
aV11
p4196
aI00
aI0
ag14
aVold
p4197
ag14
asg16
V6783
p4198
sbsVStephen Gostkowski
p4199
(i__main__
Player
p4200
(dp4201
g7
(lp4202
VK
p4203
ag4199
aV86795
p4204
aV3
p4205
aV151
p4206
aV5400
p4207
aF11.1
aV13
p4208
aI00
aI4
ag14
aVrecent
p4209
ag14
asg16
V7900
p4210
sbsVRishard Matthews
p4211
(i__main__
Player
p4212
(dp4213
g7
(lp4214
VWR
p4215
ag4211
aV86795
p4216
aV2
p4217
aV1000
p4218
aV5000
p4219
aF2.2
aV13
p4220
aI00
aI0
ag14
aVold
p4221
ag14
asg16
V22163
p4222
sbsVGeorge Winn
p4223
(i__main__
Player
p4224
(dp4225
g7
(lp4226
VRB
p4227
ag4223
aV86792
p4228
aV24
p4229
aV1000
p4230
aV4500
p4231
aF0.8
aV9
p4232
aI00
aI0
ag14
aVold
p4233
ag14
asg16
V33029
p4234
sbsVMason Crosby
p4235
(i__main__
Player
p4236
(dp4237
g7
(lp4238
VK
p4239
ag4235
aV86910
p4240
aV23
p4241
aV155
p4242
aV5000
p4243
aF9.3
aV12
p4244
aI00
aI4
ag14
aVrecent
p4245
ag14
asg16
V6897
p4246
sbsVRoy Helu
p4247
(i__main__
Player
p4248
(dp4249
g7
(lp4250
VRB
p4251
ag4247
aV86796
p4252
aV20
p4253
aV1000
p4254
aV5000
p4255
aF7.4
aV13
p4256
aI00
aI2
aVToe
p4257
aVbreaking
p4258
aVquestionable
p4259
asg16
V14305
p4260
sbsVDion Lewis
p4261
(i__main__
Player
p4262
(dp4263
g7
(lp4264
VRB
p4265
ag4261
aV86793
p4266
aV10
p4267
aV1000
p4268
aV4500
p4269
aI0
aI0
aI00
aI0
ag14
aVold
p4270
ag14
asg16
V14339
p4271
sbsVJim Dray
p4272
(i__main__
Player
p4273
(dp4274
g7
(lp4275
VTE
p4276
ag4272
aV86791
p4277
aV7
p4278
aV1000
p4279
aV4600
p4280
aF2.9
aV13
p4281
aI00
aI0
ag14
aVrecent
p4282
ag14
asg16
V11648
p4283
sbsVRyan Grant
p4284
(i__main__
Player
p4285
(dp4286
g7
(lp4287
VWR
p4288
ag4284
aV86796
p4289
aV20
p4290
aV1000
p4291
aV4500
p4292
aF0.7
aV13
p4293
aI00
aI0
ag14
aVold
p4294
ag14
asg16
V33703
p4295
sbsVCooper Helfet
p4296
(i__main__
Player
p4297
(dp4298
g7
(lp4299
VTE
p4300
ag4296
aV86799
p4301
aV31
p4302
aV1000
p4303
aV4500
p4304
aF3.8
aV9
p4305
aI00
aI2
aVAnkle
p4306
aVbreaking
p4307
aVinactive
p4308
asg16
V23023
p4309
sbsVMichael Bush
p4310
(i__main__
Player
p4311
(dp4312
g7
(lp4313
VRB
p4314
ag4310
aV86786
p4315
aV29
p4316
aV1000
p4317
aV4900
p4318
aI0
aI0
aI00
aI0
ag14
aVrecent
p4319
ag14
asg16
V7807
p4320
sbsVMatt Ryan
p4321
(i__main__
Player
p4322
(dp4323
g7
(lp4324
VQB
p4325
ag4321
aV86910
p4326
aV27
p4327
aV54
p4328
aV7900
p4329
aF17.9
aV12
p4330
aI00
aI4
ag14
aVold
p4331
ag14
asg16
V6616
p4332
sbsVMatt McGloin
p4333
(i__main__
Player
p4334
(dp4335
g7
(lp4336
VQB
p4337
ag4333
aV86794
p4338
aV15
p4339
aV1000
p4340
aV5000
p4341
aF7.5
aV1
p4342
aI00
aI2
ag14
aVold
p4343
aVinactive
p4344
asg16
V28677
p4345
sbsVDane Sanzenbacher
p4346
(i__main__
Player
p4347
(dp4348
g7
(lp4349
VWR
p4350
ag4346
aV86791
p4351
aV8
p4352
aV1000
p4353
aV4500
p4354
aF1.3
aV8
p4355
aI00
aI2
ag14
aVold
p4356
aVinactive
p4357
asg16
V14675
p4358
sbsVJosh Johnson
p4359
(i__main__
Player
p4360
(dp4361
g7
(lp4362
VQB
p4363
ag4359
aV86799
p4364
aV30
p4365
aV1000
p4366
aV5000
p4367
aI0
aI0
aI00
aI2
ag14
aVold
p4368
aVinactive
p4369
asg16
V8023
p4370
sbsVMatthew Stafford
p4371
(i__main__
Player
p4372
(dp4373
g7
(lp4374
VQB
p4375
ag4371
aV86792
p4376
aV24
p4377
aV1000
p4378
aV8500
p4379
aF17.1
aV13
p4380
aI00
aI4
ag14
aVbreaking
p4381
ag14
asg16
V6654
p4382
sbsVMatt Prater
p4383
(i__main__
Player
p4384
(dp4385
g7
(lp4386
VK
p4387
ag4383
aV86792
p4388
aV24
p4389
aV1000
p4390
aV5400
p4391
aF9.5
aV8
p4392
aI00
aI0
ag14
aVbreaking
p4393
ag14
asg16
V6782
p4394
sbsVStorm Johnson
p4395
(i__main__
Player
p4396
(dp4397
g7
(lp4398
VRB
p4399
ag4395
aV86788
p4400
aV12
p4401
aV1000
p4402
aV5200
p4403
aF6.2
aV3
p4404
aI00
aI2
ag14
aVold
p4405
aVinactive
p4406
asg16
V34275
p4407
sbsVMalcom Floyd
p4408
(i__main__
Player
p4409
(dp4410
g7
(lp4411
VWR
p4412
ag4408
aV86797
p4413
aV14
p4414
aV1000
p4415
aV5600
p4416
aF9.6
aV13
p4417
aI00
aI4
ag14
aVbreaking
p4418
ag14
asg16
V7952
p4419
sbsVArian Foster
p4420
(i__main__
Player
p4421
(dp4422
g7
(lp4423
VRB
p4424
ag4420
aV86793
p4425
aV11
p4426
aV1000
p4427
aV8900
p4428
aF21.5
aV10
p4429
aI00
aI2
aVGroin
p4430
aVbreaking
p4431
aVprobable
p4432
asg16
V10777
p4433
sbsVBilal Powell
p4434
(i__main__
Player
p4435
(dp4436
g7
(lp4437
VRB
p4438
ag4434
aV86798
p4439
aV1
p4440
aV1000
p4441
aV4500
p4442
aF2.3
aV12
p4443
aI00
aI0
ag14
aVrecent
p4444
ag14
asg16
V14320
p4445
sbsVAlfred Morris
p4446
(i__main__
Player
p4447
(dp4448
g7
(lp4449
VRB
p4450
ag4446
aV86796
p4451
aV20
p4452
aV1000
p4453
aV7000
p4454
aF11.8
aV13
p4455
aI00
aI0
ag14
aVbreaking
p4456
ag14
asg16
V22113
p4457
sbsVChase Reynolds
p4458
(i__main__
Player
p4459
(dp4460
g7
(lp4461
VRB
p4462
ag4458
aV86786
p4463
aV32
p4464
aV1000
p4465
aV4500
p4466
aI0
aV12
p4467
aI00
aI0
ag14
aVold
p4468
ag14
asg16
V15178
p4469
sbsVWill Ta'ufo'ou
p4470
(i__main__
Player
p4471
(dp4472
g7
(lp4473
VRB
p4474
ag4470
aV86788
p4475
aV12
p4476
aV1000
p4477
aV4500
p4478
aF0.7
aV13
p4479
aI00
aI4
ag14
aVnone
p4480
ag14
asg16
V10095
p4481
sbsVBrandon Bostick
p4482
(i__main__
Player
p4483
(dp4484
g7
(lp4485
VTE
p4486
ag4482
aV86910
p4487
aV23
p4488
aV1000
p4489
aV5000
p4490
aF0.8
aV9
p4491
aI00
aI0
ag14
aVold
p4492
ag14
asg16
V23055
p4493
sbsVJackie Battle
p4494
(i__main__
Player
p4495
(dp4496
g7
(lp4497
VRB
p4498
ag4494
aV86798
p4499
aV9
p4500
aV1000
p4501
aV4700
p4502
aF0.9
aV13
p4503
aI00
aI4
ag14
aVold
p4504
ag14
asg16
V6433
p4505
sbsVGreg Olsen
p4506
(i__main__
Player
p4507
(dp4508
g7
(lp4509
VTE
p4510
ag4506
aV86790
p4511
aV25
p4512
aV98
p4513
aV6700
p4514
aI12
aV13
p4515
aI00
aI6
aVKnee
p4516
aVbreaking
p4517
aVprobable
p4518
asg16
V6914
p4519
sbsVGavin Escobar
p4520
(i__main__
Player
p4521
(dp4522
g7
(lp4523
VTE
p4524
ag4520
aV86800
p4525
aV18
p4526
aV1000
p4527
aV5000
p4528
aI3
aV13
p4529
aI00
aI0
ag14
aVold
p4530
ag14
asg16
V39411
p4531
sbsVSteve Johnson
p4532
(i__main__
Player
p4533
(dp4534
g7
(lp4535
VWR
p4536
ag4532
aV86799
p4537
aV30
p4538
aV1000
p4539
aV5200
p4540
aF6.1
aV13
p4541
aI00
aI2
aVKnee
p4542
aVold
p4543
aVprobable
p4544
asg16
V7645
p4545
sbsVBernard Reedy
p4546
(i__main__
Player
p4547
(dp4548
g7
(lp4549
VWR
p4550
ag4546
aV86910
p4551
aV27
p4552
aV1000
p4553
aV4500
p4554
aI0
aI0
aI00
aI0
ag14
aVold
p4555
ag14
asg16
V45278
p4556
sbsVAntonio Gates
p4557
(i__main__
Player
p4558
(dp4559
g7
(lp4560
VTE
p4561
ag4557
aV86797
p4562
aV14
p4563
aV52
p4564
aV5500
p4565
aF10.8
aV13
p4566
aI00
aI0
ag14
aVbreaking
p4567
ag14
asg16
V7965
p4568
sbsVJosh Brown
p4569
(i__main__
Player
p4570
(dp4571
g7
(lp4572
VK
p4573
ag4569
aV86796
p4574
aV17
p4575
aV1000
p4576
aV4900
p4577
aI7
aV13
p4578
aI00
aI4
ag14
aVold
p4579
ag14
asg16
V6522
p4580
sbsVCairo Santos
p4581
(i__main__
Player
p4582
(dp4583
g7
(lp4584
VK
p4585
ag4581
aV86794
p4586
aV16
p4587
aV1000
p4588
aV4500
p4589
aF6.7
aV13
p4590
aI00
aI4
ag14
aVrecent
p4591
ag14
asg16
V33714
p4592
sbsVTyrod Taylor
p4593
(i__main__
Player
p4594
(dp4595
g7
(lp4596
VQB
p4597
ag4593
aV86788
p4598
aV6
p4599
aV1000
p4600
aV5000
p4601
aF-0.1
aV1
p4602
aI00
aI0
ag14
aVold
p4603
ag14
asg16
V14377
p4604
sbsVEli Manning
p4605
(i__main__
Player
p4606
(dp4607
g7
(lp4608
VQB
p4609
ag4605
aV86796
p4610
aV17
p4611
aV95
p4612
aV7500
p4613
aF16.5
aV13
p4614
aI00
aI4
ag14
aVbreaking
p4615
ag14
asg16
V6826
p4616
sbsVBrian Leonard
p4617
(i__main__
Player
p4618
(dp4619
g7
(lp4620
VRB
p4621
ag4617
aV86801
p4622
aV28
p4623
aV1000
p4624
aV4500
p4625
aF20.2
aV1
p4626
aI00
aI0
ag14
aVold
p4627
ag14
asg16
V6745
p4628
sbsVKelvin Benjamin
p4629
(i__main__
Player
p4630
(dp4631
g7
(lp4632
VWR
p4633
ag4629
aV86790
p4634
aV25
p4635
aV1000
p4636
aV7600
p4637
aF12.8
aV13
p4638
aI00
aI0
ag14
aVbreaking
p4639
ag14
asg16
V24929
p4640
sbsVJunior Hemingway
p4641
(i__main__
Player
p4642
(dp4643
g7
(lp4644
VWR
p4645
ag4641
aV86794
p4646
aV16
p4647
aV1000
p4648
aV4500
p4649
aF1.5
aV11
p4650
aI00
aI2
aVConcussion
p4651
aVrecent
p4652
aVinactive
p4653
asg16
V22177
p4654
sbsVJosh Hill
p4655
(i__main__
Player
p4656
(dp4657
g7
(lp4658
VTE
p4659
ag4655
aV86801
p4660
aV28
p4661
aV1000
p4662
aV4500
p4663
aF3.1
aV13
p4664
aI00
aI0
ag14
aVold
p4665
ag14
asg16
V39492
p4666
sbsVBrandon Weeden
p4667
(i__main__
Player
p4668
(dp4669
g7
(lp4670
VQB
p4671
ag4667
aV86800
p4672
aV18
p4673
aV1000
p4674
aV5000
p4675
aF5.1
aV3
p4676
aI00
aI0
ag14
aVold
p4677
ag14
asg16
V21959
p4678
sbsVDeMarco Murray
p4679
(i__main__
Player
p4680
(dp4681
g7
(lp4682
VRB
p4683
ag4679
aV86800
p4684
aV18
p4685
aV1000
p4686
aV9300
p4687
aF20.8
aV13
p4688
aI00
aI0
ag14
aVrecent
p4689
ag14
asg16
V14254
p4690
sbsVTre Mason
p4691
(i__main__
Player
p4692
(dp4693
g7
(lp4694
VRB
p4695
ag4691
aV86786
p4696
aV32
p4697
aV1000
p4698
aV7200
p4699
aF11.6
aV9
p4700
aI00
aI4
ag14
aVbreaking
p4701
ag14
asg16
V31261
p4702
sbsVTrey Watts
p4703
(i__main__
Player
p4704
(dp4705
g7
(lp4706
VRB
p4707
ag4703
aV86786
p4708
aV32
p4709
aV1000
p4710
aV4500
p4711
aF0.6
aV11
p4712
aI00
aI0
ag14
aVold
p4713
ag14
asg16
V33860
p4714
sbsVT.J. Yates
p4715
(i__main__
Player
p4716
(dp4717
g7
(lp4718
VQB
p4719
ag4715
aV86910
p4720
aV27
p4721
aV1000
p4722
aV5000
p4723
aF1.6
aV1
p4724
aI00
aI0
ag14
aVold
p4725
ag14
asg16
V14344
p4726
sbsVJason Campbell
p4727
(i__main__
Player
p4728
(dp4729
g7
(lp4730
VQB
p4731
ag4727
aV86791
p4732
aV8
p4733
aV145
p4734
aV5000
p4735
aF0.3
aV4
p4736
aI00
aI0
ag14
aVold
p4737
ag14
asg16
V6853
p4738
sbsVChris Williams
p4739
(i__main__
Player
p4740
(dp4741
g7
(lp4742
VWR
p4743
ag4739
aV86801
p4744
aV22
p4745
aV1000
p4746
aV4500
p4747
aF0.7
aV7
p4748
aI00
aI0
ag14
aVold
p4749
ag14
asg16
V10151
p4750
sbsVPhil Dawson
p4751
(i__main__
Player
p4752
(dp4753
g7
(lp4754
VK
p4755
ag4751
aV86799
p4756
aV30
p4757
aV1000
p4758
aV4800
p4759
aF8.4
aV13
p4760
aI00
aI4
ag14
aVold
p4761
ag14
asg16
V6702
p4762
sbsVJacksonville Jaguars
p4763
(i__main__
Player
p4764
(dp4765
g7
(lp4766
VD
p4767
ag4763
aV86788
p4768
aV12
p4769
aV1000
p4770
aV4500
p4771
aI0
aI0
aI00
aI4
ag14
aVnone
p4772
ag14
asg16
V12554
p4773
sbsVRobert Herron
p4774
(i__main__
Player
p4775
(dp4776
g7
(lp4777
VWR
p4778
ag4774
aV86790
p4779
aV26
p4780
aV1000
p4781
aV4500
p4782
aF1.9
aV8
p4783
aI00
aI2
aVCoach's Decision
p4784
aVold
p4785
aVinactive
p4786
asg16
V46368
p4787
sbsVAnthony Sherman
p4788
(i__main__
Player
p4789
(dp4790
g7
(lp4791
VRB
p4792
ag4788
aV86794
p4793
aV16
p4794
aV1000
p4795
aV4500
p4796
aF1.4
aV13
p4797
aI00
aI4
ag14
aVold
p4798
ag14
asg16
V14327
p4799
sbsVKyle Orton
p4800
(i__main__
Player
p4801
(dp4802
g7
(lp4803
VQB
p4804
ag4800
aV86789
p4805
aV4
p4806
aV104
p4807
aV7600
p4808
aF16.4
aV9
p4809
aI00
aI4
ag14
aVbreaking
p4810
ag14
asg16
V6757
p4811
sbsVJosh Harris
p4812
(i__main__
Player
p4813
(dp4814
g7
(lp4815
VRB
p4816
ag4812
aV86787
p4817
aV5
p4818
aV1000
p4819
aV4500
p4820
aF0.5
aV2
p4821
aI00
aI0
ag14
aVold
p4822
ag14
asg16
V25607
p4823
sbsVGlenn Winston
p4824
(i__main__
Player
p4825
(dp4826
g7
(lp4827
VRB
p4828
ag4824
aV86791
p4829
aV7
p4830
aV1000
p4831
aV4500
p4832
aI0
aV5
p4833
aI00
aI2
aVCoach's Decision
p4834
aVbreaking
p4835
aVinactive
p4836
asg16
V57348
p4837
sbsVJay Cutler
p4838
(i__main__
Player
p4839
(dp4840
g7
(lp4841
VQB
p4842
ag4838
aV86801
p4843
aV22
p4844
aV76
p4845
aV8600
p4846
aF18.5
aV13
p4847
aI00
aI4
ag14
aVrecent
p4848
ag14
asg16
V6898
p4849
sbsVJeremy Kerley
p4850
(i__main__
Player
p4851
(dp4852
g7
(lp4853
VWR
p4854
ag4850
aV86798
p4855
aV1
p4856
aV1000
p4857
aV4500
p4858
aF4.8
aV13
p4859
aI00
aI2
aVIllness
p4860
aVold
p4861
aVprobable
p4862
asg16
V14349
p4863
sbsVKenny Britt
p4864
(i__main__
Player
p4865
(dp4866
g7
(lp4867
VWR
p4868
ag4864
aV86786
p4869
aV32
p4870
aV1000
p4871
aV6400
p4872
aF6.8
aV13
p4873
aI00
aI0
ag14
aVbreaking
p4874
ag14
asg16
V6535
p4875
sbsVBrandon Lloyd
p4876
(i__main__
Player
p4877
(dp4878
g7
(lp4879
VWR
p4880
ag4876
aV86799
p4881
aV30
p4882
aV1000
p4883
aV4500
p4884
aF3.5
aV11
p4885
aI00
aI2
aVQuadriceps
p4886
aVbreaking
p4887
aVinactive
p4888
asg16
V7731
p4889
sbsVChase Ford
p4890
(i__main__
Player
p4891
(dp4892
g7
(lp4893
VTE
p4894
ag4890
aV86792
p4895
aV21
p4896
aV1000
p4897
aV4500
p4898
aF4.9
aV8
p4899
aI00
aI2
aVHamstring
p4900
aVold
p4901
aVprobable
p4902
asg16
V22228
p4903
sbsVJoseph Morgan
p4904
(i__main__
Player
p4905
(dp4906
g7
(lp4907
VWR
p4908
ag4904
aV86801
p4909
aV28
p4910
aV1000
p4911
aV4500
p4912
aF3.6
aV5
p4913
aI00
aI0
ag14
aVold
p4914
ag14
asg16
V14815
p4915
sbsVDontrelle Inman
p4916
(i__main__
Player
p4917
(dp4918
g7
(lp4919
VWR
p4920
ag4916
aV86797
p4921
aV14
p4922
aV1000
p4923
aV4500
p4924
aI0
aV5
p4925
aI00
aI2
ag14
aVnone
p4926
aVinactive
p4927
asg16
V14645
p4928
sbsVMarcel Reece
p4929
(i__main__
Player
p4930
(dp4931
g7
(lp4932
VRB
p4933
ag4929
aV86794
p4934
aV15
p4935
aV1000
p4936
aV5600
p4937
aF4.1
aV12
p4938
aI00
aI4
ag14
aVbreaking
p4939
ag14
asg16
V10354
p4940
sbsVChad Henne
p4941
(i__main__
Player
p4942
(dp4943
g7
(lp4944
VQB
p4945
ag4941
aV86788
p4946
aV12
p4947
aV1000
p4948
aV5000
p4949
aF10.4
aV3
p4950
aI00
aI0
ag14
aVold
p4951
ag14
asg16
V7844
p4952
sbsVT.Y. Hilton
p4953
(i__main__
Player
p4954
(dp4955
g7
(lp4956
VWR
p4957
ag4953
aV86793
p4958
aV10
p4959
aV1000
p4960
aV8800
p4961
aF16.2
aV13
p4962
aI00
aI6
aVHamstring
p4963
aVbreaking
p4964
aVprobable
p4965
asg16
V22031
p4966
sbsVPercy Harvin
p4967
(i__main__
Player
p4968
(dp4969
g7
(lp4970
VWR
p4971
ag4967
aV86798
p4972
aV1
p4973
aV123
p4974
aV6800
p4975
aF8.8
aV11
p4976
aI00
aI6
aVAnkle
p4977
aVbreaking
p4978
aVquestionable
p4979
asg16
V6704
p4980
sbsVRhett Ellison
p4981
(i__main__
Player
p4982
(dp4983
g7
(lp4984
VTE
p4985
ag4981
aV86792
p4986
aV21
p4987
aV1000
p4988
aV4800
p4989
aF2.1
aV13
p4990
aI00
aI2
aVAnkle
p4991
aVold
p4992
aVprobable
p4993
asg16
V22065
p4994
sbsVAdam Vinatieri
p4995
(i__main__
Player
p4996
(dp4997
g7
(lp4998
VK
p4999
ag4995
aV86793
p5000
aV10
p5001
aV1000
p5002
aV5400
p5003
aF10.6
aV13
p5004
aI00
aI0
ag14
aVold
p5005
ag14
asg16
V6668
p5006
sbsVRyan Mathews
p5007
(i__main__
Player
p5008
(dp5009
g7
(lp5010
VRB
p5011
ag5007
aV86797
p5012
aV14
p5013
aV1000
p5014
aV7600
p5015
aF10.4
aV6
p5016
aI00
aI4
ag14
aVbreaking
p5017
ag14
asg16
V11425
p5018
sbsVGreg Little
p5019
(i__main__
Player
p5020
(dp5021
g7
(lp5022
VWR
p5023
ag5019
aV86791
p5024
aV8
p5025
aV1000
p5026
aV4500
p5027
aF2.3
aV5
p5028
aI00
aI0
ag14
aVold
p5029
ag14
asg16
V14253
p5030
sbsVJames Hanna
p5031
(i__main__
Player
p5032
(dp5033
g7
(lp5034
VTE
p5035
ag5031
aV86800
p5036
aV18
p5037
aV1000
p5038
aV4500
p5039
aF0.3
aV13
p5040
aI00
aI0
ag14
aVold
p5041
ag14
asg16
V22123
p5042
sbsVTaylor Gabriel
p5043
(i__main__
Player
p5044
(dp5045
g7
(lp5046
VWR
p5047
ag5043
aV86791
p5048
aV7
p5049
aV1000
p5050
aV5100
p5051
aI6
aV13
p5052
aI00
aI0
ag14
aVbreaking
p5053
ag14
asg16
V54753
p5054
sbsVDamian Williams
p5055
(i__main__
Player
p5056
(dp5057
g7
(lp5058
VWR
p5059
ag5055
aV86786
p5060
aV32
p5061
aV1000
p5062
aV4500
p5063
aF0.6
aV3
p5064
aI00
aI0
ag14
aVold
p5065
ag14
asg16
V11492
p5066
sbsVTorrey Smith
p5067
(i__main__
Player
p5068
(dp5069
g7
(lp5070
VWR
p5071
ag5067
aV86788
p5072
aV6
p5073
aV1000
p5074
aV6600
p5075
aF9.8
aV13
p5076
aI00
aI6
aVKnee
p5077
aVbreaking
p5078
aVprobable
p5079
asg16
V14288
p5080
sbsVNathan Palmer
p5081
(i__main__
Player
p5082
(dp5083
g7
(lp5084
VWR
p5085
ag5081
aV86797
p5086
aV13
p5087
aV1000
p5088
aV4500
p5089
aI0
aI0
aI00
aI0
ag14
aVold
p5090
ag14
asg16
V22763
p5091
sbsVOakland Raiders
p5092
(i__main__
Player
p5093
(dp5094
g7
(lp5095
VD
p5096
ag5092
aV86794
p5097
aV15
p5098
aV1000
p5099
aV4600
p5100
aI0
aI0
aI00
aI4
ag14
aVnone
p5101
ag14
asg16
V12537
p5102
sbsVNick Folk
p5103
(i__main__
Player
p5104
(dp5105
g7
(lp5106
VK
p5107
ag5103
aV86798
p5108
aV1
p5109
aV158
p5110
aV4900
p5111
aF8.1
aV13
p5112
aI00
aI6
aVHip
p5113
aVbreaking
p5114
aVprobable
p5115
asg16
V6642
p5116
sbsVPatrick Murray
p5117
(i__main__
Player
p5118
(dp5119
g7
(lp5120
VK
p5121
ag5117
aV86790
p5122
aV26
p5123
aV1000
p5124
aV4800
p5125
aF6.8
aV13
p5126
aI00
aI0
ag14
aVold
p5127
ag14
asg16
V52130
p5128
sbsVRyan Hewitt
p5129
(i__main__
Player
p5130
(dp5131
g7
(lp5132
VRB
p5133
ag5129
aV86791
p5134
aV8
p5135
aV1000
p5136
aV4500
p5137
aF0.3
aV13
p5138
aI00
aI6
aVIllness
p5139
aVold
p5140
aVprobable
p5141
asg16
V29805
p5142
sbsVJulius Thomas
p5143
(i__main__
Player
p5144
(dp5145
g7
(lp5146
VTE
p5147
ag5143
aV86797
p5148
aV13
p5149
aV1000
p5150
aV6300
p5151
aF13.5
aV10
p5152
aI00
aI6
aVAnkle
p5153
aVbreaking
p5154
aVprobable
p5155
asg16
V14317
p5156
sbsVLeGarrette Blount
p5157
(i__main__
Player
p5158
(dp5159
g7
(lp5160
VRB
p5161
ag5157
aV86795
p5162
aV3
p5163
aV1000
p5164
aV6500
p5165
aF5.5
aV14
p5166
aI00
aI4
ag14
aVbreaking
p5167
ag14
asg16
V11779
p5168
sbsVJoseph Randle
p5169
(i__main__
Player
p5170
(dp5171
g7
(lp5172
VRB
p5173
ag5169
aV86800
p5174
aV18
p5175
aV1000
p5176
aV5200
p5177
aF2.7
aV13
p5178
aI00
aI0
ag14
aVrecent
p5179
ag14
asg16
V27553
p5180
sbsVKyle Juszczyk
p5181
(i__main__
Player
p5182
(dp5183
g7
(lp5184
VRB
p5185
ag5181
aV86788
p5186
aV6
p5187
aV1000
p5188
aV4500
p5189
aF2.4
aV13
p5190
aI00
aI4
ag14
aVold
p5191
ag14
asg16
V39428
p5192
sbsVMatt Simms
p5193
(i__main__
Player
p5194
(dp5195
g7
(lp5196
VQB
p5197
ag5193
aV86798
p5198
aV1
p5199
aV1000
p5200
aV5000
p5201
aF1.8
aV1
p5202
aI00
aI2
ag14
aVold
p5203
aVinactive
p5204
asg16
V22820
p5205
sbsVTravaris Cadet
p5206
(i__main__
Player
p5207
(dp5208
g7
(lp5209
VRB
p5210
ag5206
aV86801
p5211
aV28
p5212
aV1000
p5213
aV4600
p5214
aI4
aV13
p5215
aI00
aI2
aVHamstring
p5216
aVold
p5217
aVprobable
p5218
asg16
V22258
p5219
sbsVCody Parkey
p5220
(i__main__
Player
p5221
(dp5222
g7
(lp5223
VK
p5224
ag5220
aV86800
p5225
aV19
p5226
aV1000
p5227
aV5300
p5228
aF10.4
aV13
p5229
aI00
aI6
aVGroin
p5230
aVbreaking
p5231
aVprobable
p5232
asg16
V31280
p5233
sbsVAndre Holmes
p5234
(i__main__
Player
p5235
(dp5236
g7
(lp5237
VWR
p5238
ag5234
aV86794
p5239
aV15
p5240
aV1000
p5241
aV5500
p5242
aF7.4
aV13
p5243
aI00
aI4
ag14
aVbreaking
p5244
ag14
asg16
V14761
p5245
sbsVBenjamin Watson
p5246
(i__main__
Player
p5247
(dp5248
g7
(lp5249
VTE
p5250
ag5246
aV86801
p5251
aV28
p5252
aV1000
p5253
aV5000
p5254
aF2.4
aV13
p5255
aI00
aI0
ag14
aVold
p5256
ag14
asg16
V7870
p5257
sbsVAndre Johnson
p5258
(i__main__
Player
p5259
(dp5260
g7
(lp5261
VWR
p5262
ag5258
aV86793
p5263
aV11
p5264
aV11
p5265
aV6400
p5266
aF8.8
aV13
p5267
aI00
aI2
aVConcussion
p5268
aVbreaking
p5269
aVquestionable
p5270
asg16
V6681
p5271
sbsVDoug Baldwin
p5272
(i__main__
Player
p5273
(dp5274
g7
(lp5275
VWR
p5276
ag5272
aV86799
p5277
aV31
p5278
aV1000
p5279
aV6300
p5280
aF8.2
aV13
p5281
aI00
aI0
ag14
aVbreaking
p5282
ag14
asg16
V14626
p5283
sbsVBrandon Marshall
p5284
(i__main__
Player
p5285
(dp5286
g7
(lp5287
VWR
p5288
ag5284
aV86801
p5289
aV22
p5290
aV36
p5291
aV7600
p5292
aF11.4
aV13
p5293
aI00
aI2
aVRibs
p5294
aVrecent
p5295
aVOut
p5296
asg16
V6759
p5297
sbsVKeenan Allen
p5298
(i__main__
Player
p5299
(dp5300
g7
(lp5301
VWR
p5302
ag5298
aV86797
p5303
aV14
p5304
aV1000
p5305
aV7400
p5306
aF10.3
aV13
p5307
aI00
aI0
ag14
aVbreaking
p5308
ag14
asg16
V29253
p5309
sbsVAlex Smith
p5310
(i__main__
Player
p5311
(dp5312
g7
(lp5313
VQB
p5314
ag5310
aV86794
p5315
aV16
p5316
aV1000
p5317
aV7200
p5318
aF14.7
aV13
p5319
aI00
aI4
ag14
aVbreaking
p5320
ag14
asg16
V8005
p5321
sbsVGeorge Atkinson III
p5322
(i__main__
Player
p5323
(dp5324
g7
(lp5325
VRB
p5326
ag5322
aV86794
p5327
aV15
p5328
aV1000
p5329
aV4500
p5330
aI0
aV2
p5331
aI00
aI0
ag14
aVold
p5332
ag14
asg16
V33571
p5333
sbsVJustin Hunter
p5334
(i__main__
Player
p5335
(dp5336
g7
(lp5337
VWR
p5338
ag5334
aV86798
p5339
aV9
p5340
aV1000
p5341
aV5200
p5342
aF6.8
aV12
p5343
aI00
aI2
aVAbdomen
p5344
aVrecent
p5345
aVIR
p5346
asg16
V30775
p5347
sbsVHakeem Nicks
p5348
(i__main__
Player
p5349
(dp5350
g7
(lp5351
VWR
p5352
ag5348
aV86793
p5353
aV10
p5354
aV1000
p5355
aV4500
p5356
aF4.2
aV13
p5357
aI00
aI0
ag14
aVrecent
p5358
ag14
asg16
V6884
p5359
sbsVAlex Bayer
p5360
(i__main__
Player
p5361
(dp5362
g7
(lp5363
VTE
p5364
ag5360
aV86786
p5365
aV32
p5366
aV1000
p5367
aV4500
p5368
aI0
aV6
p5369
aI00
aI2
ag14
aVold
p5370
aVinactive
p5371
asg16
V44560
p5372
sbsVVirgil Green
p5373
(i__main__
Player
p5374
(dp5375
g7
(lp5376
VTE
p5377
ag5373
aV86797
p5378
aV13
p5379
aV1000
p5380
aV4500
p5381
aF0.5
aV10
p5382
aI00
aI0
ag14
aVold
p5383
ag14
asg16
V14394
p5384
sbsVMiami Dolphins
p5385
(i__main__
Player
p5386
(dp5387
g7
(lp5388
VD
p5389
ag5385
aV86795
p5390
aV2
p5391
aV1000
p5392
aV4700
p5393
aI0
aI0
aI00
aI4
ag14
aVnone
p5394
ag14
asg16
V12539
p5395
sbsVTerrance Williams
p5396
(i__main__
Player
p5397
(dp5398
g7
(lp5399
VWR
p5400
ag5396
aV86800
p5401
aV18
p5402
aV1000
p5403
aV4500
p5404
aF7.6
aV13
p5405
aI00
aI6
aVFinger
p5406
aVrecent
p5407
aVprobable
p5408
asg16
V31836
p5409
sbsVDrew Stanton
p5410
(i__main__
Player
p5411
(dp5412
g7
(lp5413
VQB
p5414
ag5410
aV86786
p5415
aV29
p5416
aV1000
p5417
aV6800
p5418
aF11.6
aV8
p5419
aI00
aI4
ag14
aVbreaking
p5420
ag14
asg16
V7744
p5421
sbsVJason Avant
p5422
(i__main__
Player
p5423
(dp5424
g7
(lp5425
VWR
p5426
ag5422
aV86794
p5427
aV16
p5428
aV1000
p5429
aV5000
p5430
aF3.8
aV13
p5431
aI00
aI0
ag14
aVrecent
p5432
ag14
asg16
V6388
p5433
sbsVShaun Suisham
p5434
(i__main__
Player
p5435
(dp5436
g7
(lp5437
VK
p5438
ag5434
aV86787
p5439
aV5
p5440
aV1000
p5441
aV5200
p5442
aF9.1
aV13
p5443
aI00
aI4
ag14
aVrecent
p5444
ag14
asg16
V6880
p5445
sbsVRobert Turbin
p5446
(i__main__
Player
p5447
(dp5448
g7
(lp5449
VRB
p5450
ag5446
aV86799
p5451
aV31
p5452
aV1000
p5453
aV4600
p5454
aF4.1
aV13
p5455
aI00
aI0
ag14
aVold
p5456
ag14
asg16
V22048
p5457
sbsVJimmy Clausen
p5458
(i__main__
Player
p5459
(dp5460
g7
(lp5461
VQB
p5462
ag5458
aV86801
p5463
aV22
p5464
aV1000
p5465
aV5000
p5466
aF0.6
aV3
p5467
aI00
aI0
ag14
aVold
p5468
ag14
asg16
V11466
p5469
sbsVJeff Maehl
p5470
(i__main__
Player
p5471
(dp5472
g7
(lp5473
VWR
p5474
ag5470
aV86800
p5475
aV19
p5476
aV1000
p5477
aV4500
p5478
aF0.9
aV8
p5479
aI00
aI0
ag14
aVold
p5480
ag14
asg16
V15052
p5481
sbsVLee Smith
p5482
(i__main__
Player
p5483
(dp5484
g7
(lp5485
VTE
p5486
ag5482
aV86789
p5487
aV4
p5488
aV1000
p5489
aV4500
p5490
aF0.9
aV11
p5491
aI00
aI0
ag14
aVold
p5492
ag14
asg16
V14348
p5493
sbsVCharles Sims
p5494
(i__main__
Player
p5495
(dp5496
g7
(lp5497
VRB
p5498
ag5494
aV86790
p5499
aV26
p5500
aV1000
p5501
aV5100
p5502
aF4.6
aV5
p5503
aI00
aI0
ag14
aVbreaking
p5504
ag14
asg16
V31871
p5505
sbsVKris Durham
p5506
(i__main__
Player
p5507
(dp5508
g7
(lp5509
VWR
p5510
ag5506
aV86798
p5511
aV9
p5512
aV1000
p5513
aV4500
p5514
aF4.5
aV1
p5515
aI00
aI0
ag14
aVrecent
p5516
ag14
asg16
V14302
p5517
sbsVBrent Celek
p5518
(i__main__
Player
p5519
(dp5520
g7
(lp5521
VTE
p5522
ag5518
aV86800
p5523
aV19
p5524
aV1000
p5525
aV4500
p5526
aF3.1
aV13
p5527
aI00
aI4
ag14
aVold
p5528
ag14
asg16
V6742
p5529
sbsVKevin Norwood
p5530
(i__main__
Player
p5531
(dp5532
g7
(lp5533
VWR
p5534
ag5530
aV86799
p5535
aV31
p5536
aV1000
p5537
aV4500
p5538
aF1.3
aV8
p5539
aI00
aI0
ag14
aVold
p5540
ag14
asg16
V31036
p5541
sbsVDarren McFadden
p5542
(i__main__
Player
p5543
(dp5544
g7
(lp5545
VRB
p5546
ag5542
aV86794
p5547
aV15
p5548
aV43
p5549
aV4900
p5550
aF7.1
aV13
p5551
aI00
aI0
ag14
aVbreaking
p5552
ag14
asg16
V7806
p5553
sbsVBrandon Bolden
p5554
(i__main__
Player
p5555
(dp5556
g7
(lp5557
VRB
p5558
ag5554
aV86795
p5559
aV3
p5560
aV1000
p5561
aV4900
p5562
aF0.9
aV13
p5563
aI00
aI0
ag14
aVold
p5564
ag14
asg16
V22898
p5565
sbsVNew York Giants
p5566
(i__main__
Player
p5567
(dp5568
g7
(lp5569
VD
p5570
ag5566
aV86796
p5571
aV17
p5572
aV1000
p5573
aV5200
p5574
aI0
aI0
aI00
aI4
ag14
aVnone
p5575
ag14
asg16
V12543
p5576
sbsVRobbie Gould
p5577
(i__main__
Player
p5578
(dp5579
g7
(lp5580
VK
p5581
ag5577
aV86801
p5582
aV22
p5583
aV160
p5584
aV4500
p5585
aF4.8
aV12
p5586
aI00
aI6
aVQuadriceps
p5587
aVrecent
p5588
aVinactive
p5589
asg16
V6910
p5590
sbsVKhiry Robinson
p5591
(i__main__
Player
p5592
(dp5593
g7
(lp5594
VRB
p5595
ag5591
aV86801
p5596
aV28
p5597
aV1000
p5598
aV4900
p5599
aF7.5
aV6
p5600
aI00
aI2
aVArm
p5601
aVbreaking
p5602
aVprobable
p5603
asg16
V39900
p5604
sbsVChristian Ponder
p5605
(i__main__
Player
p5606
(dp5607
g7
(lp5608
VQB
p5609
ag5605
aV86792
p5610
aV21
p5611
aV1000
p5612
aV5000
p5613
aF6.7
aV2
p5614
aI00
aI0
ag14
aVold
p5615
ag14
asg16
V14198
p5616
sbsVKendall Wright
p5617
(i__main__
Player
p5618
(dp5619
g7
(lp5620
VWR
p5621
ag5617
aV86798
p5622
aV9
p5623
aV1000
p5624
aV6400
p5625
aF10.1
aV12
p5626
aI00
aI2
aVHand
p5627
aVbreaking
p5628
aVinactive
p5629
asg16
V21957
p5630
sbsVDeSean Jackson
p5631
(i__main__
Player
p5632
(dp5633
g7
(lp5634
VWR
p5635
ag5631
aV86796
p5636
aV20
p5637
aV65
p5638
aV7300
p5639
aF12.3
aV12
p5640
aI00
aI2
aVLower Leg
p5641
aVbreaking
p5642
aVinactive
p5643
asg16
V6739
p5644
sbsVBear Pascoe
p5645
(i__main__
Player
p5646
(dp5647
g7
(lp5648
VTE
p5649
ag5645
aV86910
p5650
aV27
p5651
aV1000
p5652
aV4600
p5653
aF0.6
aV12
p5654
aI00
aI0
ag14
aVold
p5655
ag14
asg16
V10495
p5656
sbsVJoique Bell
p5657
(i__main__
Player
p5658
(dp5659
g7
(lp5660
VRB
p5661
ag5657
aV86792
p5662
aV24
p5663
aV1000
p5664
aV7500
p5665
aF12.3
aV12
p5666
aI00
aI0
ag14
aVbreaking
p5667
ag14
asg16
V11712
p5668
sbsVLogan Thomas
p5669
(i__main__
Player
p5670
(dp5671
g7
(lp5672
VQB
p5673
ag5669
aV86786
p5674
aV29
p5675
aV1000
p5676
aV5000
p5677
aF7.2
aV1
p5678
aI00
aI0
ag14
aVold
p5679
ag14
asg16
V26355
p5680
sbsVAustin Davis
p5681
(i__main__
Player
p5682
(dp5683
g7
(lp5684
VQB
p5685
ag5681
aV86786
p5686
aV32
p5687
aV1000
p5688
aV6000
p5689
aF11.7
aV10
p5690
aI00
aI0
ag14
aVold
p5691
ag14
asg16
V22848
p5692
sbsVPierre Thomas
p5693
(i__main__
Player
p5694
(dp5695
g7
(lp5696
VRB
p5697
ag5693
aV86801
p5698
aV28
p5699
aV31
p5700
aV5700
p5701
aF9.5
aV9
p5702
aI00
aI0
ag14
aVbreaking
p5703
ag14
asg16
V7904
p5704
sbsVAaron Dobson
p5705
(i__main__
Player
p5706
(dp5707
g7
(lp5708
VWR
p5709
ag5705
aV86795
p5710
aV3
p5711
aV1000
p5712
aV4500
p5713
aF1.3
aV4
p5714
aI00
aI2
aVHamstring
p5715
aVrecent
p5716
aVIR
p5717
asg16
V34014
p5718
sbsVAlshon Jeffery
p5719
(i__main__
Player
p5720
(dp5721
g7
(lp5722
VWR
p5723
ag5719
aV86801
p5724
aV22
p5725
aV1000
p5726
aV8400
p5727
aF14.1
aV13
p5728
aI00
aI2
aVHamstring
p5729
aVrecent
p5730
aVprobable
p5731
asg16
V21980
p5732
sbsVDouglas McNeil
p5733
(i__main__
Player
p5734
(dp5735
g7
(lp5736
VWR
p5737
ag5733
aV86797
p5738
aV13
p5739
aV1000
p5740
aV4500
p5741
aI0
aI0
aI00
aI0
ag14
aVnone
p5742
ag14
asg16
V60305
p5743
sbsVBrian Hoyer
p5744
(i__main__
Player
p5745
(dp5746
g7
(lp5747
VQB
p5748
ag5744
aV86791
p5749
aV7
p5750
aV1000
p5751
aV6400
p5752
aF12.3
aV13
p5753
aI00
aI4
ag14
aVbreaking
p5754
ag14
asg16
V7872
p5755
sbsVLeSean McCoy
p5756
(i__main__
Player
p5757
(dp5758
g7
(lp5759
VRB
p5760
ag5756
aV86800
p5761
aV19
p5762
aV100
p5763
aV8100
p5764
aF11.3
aV13
p5765
aI00
aI4
ag14
aVbreaking
p5766
ag14
asg16
V6779
p5767
sbsVDanny Amendola
p5768
(i__main__
Player
p5769
(dp5770
g7
(lp5771
VWR
p5772
ag5768
aV86795
p5773
aV3
p5774
aV1000
p5775
aV4500
p5776
aF1.8
aV13
p5777
aI00
aI0
ag14
aVrecent
p5778
ag14
asg16
V8117
p5779
sbsVJermaine Gresham
p5780
(i__main__
Player
p5781
(dp5782
g7
(lp5783
VTE
p5784
ag5780
aV86791
p5785
aV8
p5786
aV1000
p5787
aV5300
p5788
aF6.2
aV13
p5789
aI00
aI4
ag14
aVbreaking
p5790
ag14
asg16
V11431
p5791
sbsVMohamed Sanu
p5792
(i__main__
Player
p5793
(dp5794
g7
(lp5795
VWR
p5796
ag5792
aV86791
p5797
aV8
p5798
aV1000
p5799
aV6300
p5800
aF11.2
aV13
p5801
aI00
aI4
ag14
aVold
p5802
ag14
asg16
V22018
p5803
sbsVShaun Draughn
p5804
(i__main__
Player
p5805
(dp5806
g7
(lp5807
VRB
p5808
ag5804
aV86791
p5809
aV7
p5810
aV1000
p5811
aV4500
p5812
aF0.3
aV7
p5813
aI00
aI0
ag14
aVbreaking
p5814
ag14
asg16
V15006
p5815
sbsVBlaine Gabbert
p5816
(i__main__
Player
p5817
(dp5818
g7
(lp5819
VQB
p5820
ag5816
aV86799
p5821
aV30
p5822
aV1000
p5823
aV5000
p5824
aI6
aV1
p5825
aI00
aI0
ag14
aVold
p5826
ag14
asg16
V14194
p5827
sbsVDerek Carr
p5828
(i__main__
Player
p5829
(dp5830
g7
(lp5831
VQB
p5832
ag5828
aV86794
p5833
aV15
p5834
aV1000
p5835
aV6900
p5836
aI13
aV13
p5837
aI00
aI4
ag14
aVbreaking
p5838
ag14
asg16
V45859
p5839
sbsVSan Diego Chargers
p5840
(i__main__
Player
p5841
(dp5842
g7
(lp5843
VD
p5844
ag5840
aV86797
p5845
aV14
p5846
aV1000
p5847
aV4600
p5848
aI0
aI0
aI00
aI4
ag14
aVnone
p5849
ag14
asg16
V12548
p5850
sbsVTyler Clutts
p5851
(i__main__
Player
p5852
(dp5853
g7
(lp5854
VRB
p5855
ag5851
aV86800
p5856
aV18
p5857
aV1000
p5858
aV4500
p5859
aI0
aV13
p5860
aI00
aI4
ag14
aVold
p5861
ag14
asg16
V12888
p5862
sbsVScott Chandler
p5863
(i__main__
Player
p5864
(dp5865
g7
(lp5866
VTE
p5867
ag5863
aV86789
p5868
aV4
p5869
aV1000
p5870
aV5200
p5871
aF5.7
aV13
p5872
aI00
aI4
ag14
aVbreaking
p5873
ag14
asg16
V10158
p5874
sbsVBranden Oliver
p5875
(i__main__
Player
p5876
(dp5877
g7
(lp5878
VRB
p5879
ag5875
aV86797
p5880
aV14
p5881
aV1000
p5882
aV4800
p5883
aF8.6
aV11
p5884
aI00
aI0
ag14
aVrecent
p5885
ag14
asg16
V47640
p5886
sbsVMiles Austin
p5887
(i__main__
Player
p5888
(dp5889
g7
(lp5890
VWR
p5891
ag5887
aV86791
p5892
aV7
p5893
aV1000
p5894
aV5500
p5895
aF7.7
aV12
p5896
aI00
aI2
aVAbdomen
p5897
aVrecent
p5898
aVIR
p5899
asg16
V6387
p5900
sbsVKa'Deem Carey
p5901
(i__main__
Player
p5902
(dp5903
g7
(lp5904
VRB
p5905
ag5901
aV86801
p5906
aV22
p5907
aV1000
p5908
aV4500
p5909
aF1.4
aV13
p5910
aI00
aI0
ag14
aVrecent
p5911
ag14
asg16
V29003
p5912
sbsVJosh Morgan
p5913
(i__main__
Player
p5914
(dp5915
g7
(lp5916
VWR
p5917
ag5913
aV86801
p5918
aV22
p5919
aV107
p5920
aV4500
p5921
aF1.4
aV11
p5922
aI00
aI0
ag14
aVrecent
p5923
ag14
asg16
V6845
p5924
sbsVJamaal Charles
p5925
(i__main__
Player
p5926
(dp5927
g7
(lp5928
VRB
p5929
ag5925
aV86794
p5930
aV16
p5931
aV1000
p5932
aV9200
p5933
aF17.4
aV12
p5934
aI00
aI2
aVAnkle
p5935
aVbreaking
p5936
aVprobable
p5937
asg16
V6728
p5938
sbsVC.J. Anderson
p5939
(i__main__
Player
p5940
(dp5941
g7
(lp5942
VRB
p5943
ag5939
aV86797
p5944
aV13
p5945
aV1000
p5946
aV8000
p5947
aF10.9
aV12
p5948
aI00
aI6
aVAnkle
p5949
aVbreaking
p5950
aVprobable
p5951
asg16
V29249
p5952
sbsVGreen Bay Packers
p5953
(i__main__
Player
p5954
(dp5955
g7
(lp5956
VD
p5957
ag5953
aV86910
p5958
aV23
p5959
aV1000
p5960
aV5100
p5961
aI0
aI0
aI00
aI4
ag14
aVnone
p5962
ag14
asg16
V12533
p5963
sbsVZach Sudfeld
p5964
(i__main__
Player
p5965
(dp5966
g7
(lp5967
VTE
p5968
ag5964
aV86798
p5969
aV1
p5970
aV1000
p5971
aV4500
p5972
aF0.3
aV13
p5973
aI00
aI0
ag14
aVold
p5974
ag14
asg16
V39689
p5975
sbsVRyan Lankford
p5976
(i__main__
Player
p5977
(dp5978
g7
(lp5979
VWR
p5980
ag5976
aV86793
p5981
aV10
p5982
aV1000
p5983
aV4500
p5984
aI0
aI0
aI00
aI0
ag14
aVnone
p5985
ag14
asg16
V27648
p5986
sbsVSilas Redd
p5987
(i__main__
Player
p5988
(dp5989
g7
(lp5990
VRB
p5991
ag5987
aV86796
p5992
aV20
p5993
aV1000
p5994
aV5100
p5995
aF1.7
aV12
p5996
aI00
aI2
aVRibs
p5997
aVold
p5998
aVprobable
p5999
asg16
V29672
p6000
sbsVCoby Fleener
p6001
(i__main__
Player
p6002
(dp6003
g7
(lp6004
VTE
p6005
ag6001
aV86793
p6006
aV10
p6007
aV1000
p6008
aV6300
p6009
aF9.3
aV13
p6010
aI00
aI0
ag14
aVbreaking
p6011
ag14
asg16
V21971
p6012
sbsVEric Weems
p6013
(i__main__
Player
p6014
(dp6015
g7
(lp6016
VWR
p6017
ag6013
aV86910
p6018
aV27
p6019
aV1000
p6020
aV4500
p6021
aF1.1
aV12
p6022
aI00
aI0
ag14
aVold
p6023
ag14
asg16
V6622
p6024
sbsVSebastian Janikowski
p6025
(i__main__
Player
p6026
(dp6027
g7
(lp6028
VK
p6029
ag6025
aV86794
p6030
aV15
p6031
aV1000
p6032
aV4700
p6033
aF5.6
aV13
p6034
aI00
aI4
ag14
aVold
p6035
ag14
asg16
V7831
p6036
sbsVAndre Roberts
p6037
(i__main__
Player
p6038
(dp6039
g7
(lp6040
VWR
p6041
ag6037
aV86796
p6042
aV20
p6043
aV1000
p6044
aV4900
p6045
aF4.9
aV13
p6046
aI00
aI0
ag14
aVold
p6047
ag14
asg16
V11504
p6048
sbsVJeremy Hill
p6049
(i__main__
Player
p6050
(dp6051
g7
(lp6052
VRB
p6053
ag6049
aV86791
p6054
aV8
p6055
aV1000
p6056
aV7100
p6057
aF10.7
aV13
p6058
aI00
aI0
ag14
aVbreaking
p6059
ag14
asg16
V31397
p6060
sbsVJames Starks
p6061
(i__main__
Player
p6062
(dp6063
g7
(lp6064
VRB
p6065
ag6061
aV86910
p6066
aV23
p6067
aV1000
p6068
aV5300
p6069
aF3.4
aV12
p6070
aI00
aI0
ag14
aVrecent
p6071
ag14
asg16
V11609
p6072
sbsVMatt Schaub
p6073
(i__main__
Player
p6074
(dp6075
g7
(lp6076
VQB
p6077
ag6073
aV86794
p6078
aV15
p6079
aV59
p6080
aV5000
p6081
aF0.1
aV8
p6082
aI00
aI0
ag14
aVold
p6083
ag14
asg16
V6679
p6084
sbsVJared Cook
p6085
(i__main__
Player
p6086
(dp6087
g7
(lp6088
VTE
p6089
ag6085
aV86786
p6090
aV32
p6091
aV1000
p6092
aV4900
p6093
aF7.1
aV13
p6094
aI00
aI0
ag14
aVbreaking
p6095
ag14
asg16
V7761
p6096
sbsVJake Locker
p6097
(i__main__
Player
p6098
(dp6099
g7
(lp6100
VQB
p6101
ag6097
aV86798
p6102
aV9
p6103
aV1000
p6104
aV6700
p6105
aF11.3
aV6
p6106
aI00
aI0
ag14
aVbreaking
p6107
ag14
asg16
V14192
p6108
sbsVCorey Fuller
p6109
(i__main__
Player
p6110
(dp6111
g7
(lp6112
VWR
p6113
ag6109
aV86792
p6114
aV24
p6115
aV1000
p6116
aV4500
p6117
aF2.5
aV13
p6118
aI00
aI0
ag14
aVold
p6119
ag14
asg16
V26343
p6120
sbsVLorenzo Taliaferro
p6121
(i__main__
Player
p6122
(dp6123
g7
(lp6124
VRB
p6125
ag6121
aV86788
p6126
aV6
p6127
aV1000
p6128
aV5000
p6129
aF5.1
aV13
p6130
aI00
aI0
ag14
aVbreaking
p6131
ag14
asg16
V54612
p6132
sbsVDemaryius Thomas
p6133
(i__main__
Player
p6134
(dp6135
g7
(lp6136
VWR
p6137
ag6133
aV86797
p6138
aV13
p6139
aV1000
p6140
aV9000
p6141
aI18
aV13
p6142
aI00
aI2
aVAnkle
p6143
aVbreaking
p6144
aVprobable
p6145
asg16
V11432
p6146
sbsVLandry Jones
p6147
(i__main__
Player
p6148
(dp6149
g7
(lp6150
VQB
p6151
ag6147
aV86787
p6152
aV5
p6153
aV1000
p6154
aV5000
p6155
aI0
aI0
aI00
aI2
ag14
aVold
p6156
aVinactive
p6157
asg16
V27405
p6158
sbsVKansas City Chiefs
p6159
(i__main__
Player
p6160
(dp6161
g7
(lp6162
VD
p6163
ag6159
aV86794
p6164
aV16
p6165
aV1000
p6166
aV4900
p6167
aI0
aI0
aI00
aI4
ag14
aVnone
p6168
ag14
asg16
V12536
p6169
sbsVDante Rosario
p6170
(i__main__
Player
p6171
(dp6172
g7
(lp6173
VTE
p6174
ag6170
aV86801
p6175
aV22
p6176
aV1000
p6177
aV4500
p6178
aF1.1
aV13
p6179
aI00
aI0
ag14
aVold
p6180
ag14
asg16
V7443
p6181
sbsVScott Tolzien
p6182
(i__main__
Player
p6183
(dp6184
g7
(lp6185
VQB
p6186
ag6182
aV86910
p6187
aV23
p6188
aV1000
p6189
aV5000
p6190
aI0
aI0
aI00
aI0
ag14
aVold
p6191
ag14
asg16
V14696
p6192
sbsVDenarius Moore
p6193
(i__main__
Player
p6194
(dp6195
g7
(lp6196
VWR
p6197
ag6193
aV86794
p6198
aV15
p6199
aV1000
p6200
aV4500
p6201
aF1.6
aV10
p6202
aI00
aI2
ag14
aVold
p6203
aVinactive
p6204
asg16
V14338
p6205
sbsVWes Welker
p6206
(i__main__
Player
p6207
(dp6208
g7
(lp6209
VWR
p6210
ag6206
aV86797
p6211
aV13
p6212
aV38
p6213
aV5700
p6214
aF6.6
aV11
p6215
aI00
aI6
aVNot Injury Related
p6216
aVbreaking
p6217
aVprobable
p6218
asg16
V7857
p6219
sbsVDamaris Johnson
p6220
(i__main__
Player
p6221
(dp6222
g7
(lp6223
VWR
p6224
ag6220
aV86793
p6225
aV11
p6226
aV1000
p6227
aV4800
p6228
aF3.4
aV13
p6229
aI00
aI0
ag14
aVold
p6230
ag14
asg16
V22232
p6231
sbsVPreston Parker
p6232
(i__main__
Player
p6233
(dp6234
g7
(lp6235
VWR
p6236
ag6232
aV86796
p6237
aV17
p6238
aV1000
p6239
aV5200
p6240
aF4.6
aV13
p6241
aI00
aI2
aVKnee
p6242
aVbreaking
p6243
aVprobable
p6244
asg16
V11829
p6245
sbsVLuke Stocker
p6246
(i__main__
Player
p6247
(dp6248
g7
(lp6249
VTE
p6250
ag6246
aV86790
p6251
aV26
p6252
aV1000
p6253
aV4500
p6254
aF0.6
aV10
p6255
aI00
aI2
aVConcussion
p6256
aVbreaking
p6257
aVprobable
p6258
asg16
V14304
p6259
sbsVJacoby Jones
p6260
(i__main__
Player
p6261
(dp6262
g7
(lp6263
VWR
p6264
ag6260
aV86788
p6265
aV6
p6266
aV1000
p6267
aV4600
p6268
aF1.3
aV13
p6269
aI00
aI0
ag14
aVold
p6270
ag14
asg16
V6684
p6271
sbsVSt Louis Rams
p6272
(i__main__
Player
p6273
(dp6274
g7
(lp6275
VD
p6276
ag6272
aV86786
p6277
aV32
p6278
aV1000
p6279
aV5400
p6280
aI0
aI0
aI00
aI4
ag14
aVnone
p6281
ag14
asg16
V12538
p6282
sbsVAndrew Hawkins
p6283
(i__main__
Player
p6284
(dp6285
g7
(lp6286
VWR
p6287
ag6283
aV86791
p6288
aV7
p6289
aV1000
p6290
aV5800
p6291
aF9.7
aV12
p6292
aI00
aI4
ag14
aVbreaking
p6293
ag14
asg16
V12903
p6294
sbsVMarQueis Gray
p6295
(i__main__
Player
p6296
(dp6297
g7
(lp6298
VTE
p6299
ag6295
aV86789
p6300
aV4
p6301
aV1000
p6302
aV4500
p6303
aF1.5
aV10
p6304
aI00
aI0
ag14
aVold
p6305
ag14
asg16
V28311
p6306
sbsVCody Latimer
p6307
(i__main__
Player
p6308
(dp6309
g7
(lp6310
VWR
p6311
ag6307
aV86797
p6312
aV13
p6313
aV1000
p6314
aV4500
p6315
aF0.2
aV6
p6316
aI00
aI2
aVConcussion
p6317
aVrecent
p6318
aVinactive
p6319
asg16
V27771
p6320
sbsVMike Brown
p6321
(i__main__
Player
p6322
(dp6323
g7
(lp6324
VWR
p6325
ag6321
aV86788
p6326
aV12
p6327
aV1000
p6328
aV4500
p6329
aF2.1
aV5
p6330
aI00
aI0
ag14
aVold
p6331
ag14
asg16
V22838
p6332
sbsVCharles Johnson
p6333
(i__main__
Player
p6334
(dp6335
g7
(lp6336
VWR
p6337
ag6333
aV86792
p6338
aV21
p6339
aV1000
p6340
aV6600
p6341
aF6.5
aV9
p6342
aI00
aI0
ag14
aVbreaking
p6343
ag14
asg16
V39449
p6344
sbsVGiovani Bernard
p6345
(i__main__
Player
p6346
(dp6347
g7
(lp6348
VRB
p6349
ag6345
aV86791
p6350
aV8
p6351
aV1000
p6352
aV6900
p6353
aF12.2
aV10
p6354
aI00
aI0
ag14
aVbreaking
p6355
ag14
asg16
V25290
p6356
sbsVMichael Crabtree
p6357
(i__main__
Player
p6358
(dp6359
g7
(lp6360
VWR
p6361
ag6357
aV86799
p6362
aV30
p6363
aV1000
p6364
aV6400
p6365
aF9.1
aV13
p6366
aI00
aI6
aVKnee
p6367
aVbreaking
p6368
aVprobable
p6369
asg16
V9392
p6370
sbsVJames White
p6371
(i__main__
Player
p6372
(dp6373
g7
(lp6374
VRB
p6375
ag6371
aV86795
p6376
aV3
p6377
aV1000
p6378
aV4500
p6379
aF3.4
aV2
p6380
aI00
aI2
ag14
aVold
p6381
aVinactive
p6382
asg16
V28930
p6383
sbsVStedman Bailey
p6384
(i__main__
Player
p6385
(dp6386
g7
(lp6387
VWR
p6388
ag6384
aV86786
p6389
aV32
p6390
aV1000
p6391
aV6300
p6392
aF5.9
aV11
p6393
aI00
aI0
ag14
aVold
p6394
ag14
asg16
V26498
p6395
sbsVAaron Murray
p6396
(i__main__
Player
p6397
(dp6398
g7
(lp6399
VQB
p6400
ag6396
aV86794
p6401
aV16
p6402
aV1000
p6403
aV5000
p6404
aI0
aI0
aI00
aI2
ag14
aVold
p6405
aVinactive
p6406
asg16
V30364
p6407
sbsVDallas Cowboys
p6408
(i__main__
Player
p6409
(dp6410
g7
(lp6411
VD
p6412
ag6408
aV86800
p6413
aV18
p6414
aV1000
p6415
aV4700
p6416
aI0
aI0
aI00
aI4
ag14
aVnone
p6417
ag14
asg16
V12530
p6418
sbsVAldrick Robinson
p6419
(i__main__
Player
p6420
(dp6421
g7
(lp6422
VWR
p6423
ag6419
aV86796
p6424
aV20
p6425
aV1000
p6426
aV4500
p6427
aF0.2
aV5
p6428
aI00
aI0
ag14
aVrecent
p6429
ag14
asg16
V14372
p6430
sbsVTerrance West
p6431
(i__main__
Player
p6432
(dp6433
g7
(lp6434
VRB
p6435
ag6431
aV86791
p6436
aV7
p6437
aV1000
p6438
aV5200
p6439
aF7.3
aV12
p6440
aI00
aI0
ag14
aVbreaking
p6441
ag14
asg16
V54607
p6442
sbsVAustin Seferian-Jenkins
p6443
(i__main__
Player
p6444
(dp6445
g7
(lp6446
VTE
p6447
ag6443
aV86790
p6448
aV26
p6449
aV1000
p6450
aV4500
p6451
aF4.7
aV9
p6452
aI00
aI2
aVBack
p6453
aVbreaking
p6454
aVinactive
p6455
asg16
V16923
p6456
sbsVConnor Barth
p6457
(i__main__
Player
p6458
(dp6459
g7
(lp6460
VK
p6461
ag6457
aV86797
p6462
aV13
p6463
aV1000
p6464
aV4700
p6465
aF12.5
aV2
p6466
aI00
aI4
ag14
aVbreaking
p6467
ag14
asg16
V6427
p6468
sbsVBryce Brown
p6469
(i__main__
Player
p6470
(dp6471
g7
(lp6472
VRB
p6473
ag6469
aV86789
p6474
aV4
p6475
aV1000
p6476
aV5200
p6477
aI5
aV6
p6478
aI00
aI0
ag14
aVold
p6479
ag14
asg16
V22165
p6480
sbsVDevin Street
p6481
(i__main__
Player
p6482
(dp6483
g7
(lp6484
VWR
p6485
ag6481
aV86800
p6486
aV18
p6487
aV1000
p6488
aV4500
p6489
aF0.2
aV13
p6490
aI00
aI0
ag14
aVold
p6491
ag14
asg16
V25886
p6492
sbsVJimmy Graham
p6493
(i__main__
Player
p6494
(dp6495
g7
(lp6496
VTE
p6497
ag6493
aV86801
p6498
aV28
p6499
aV1000
p6500
aV6900
p6501
aI12
aV13
p6502
aI00
aI4
ag14
aVbreaking
p6503
ag14
asg16
V11512
p6504
sbsVRueben Randle
p6505
(i__main__
Player
p6506
(dp6507
g7
(lp6508
VWR
p6509
ag6505
aV86796
p6510
aV17
p6511
aV1000
p6512
aV5800
p6513
aF7.9
aV13
p6514
aI00
aI4
ag14
aVbreaking
p6515
ag14
asg16
V21999
p6516
sbsVKeshawn Martin
p6517
(i__main__
Player
p6518
(dp6519
g7
(lp6520
VWR
p6521
ag6517
aV86793
p6522
aV11
p6523
aV1000
p6524
aV4500
p6525
aF0.8
aV13
p6526
aI00
aI0
ag14
aVold
p6527
ag14
asg16
V22063
p6528
sbsVKirk Cousins
p6529
(i__main__
Player
p6530
(dp6531
g7
(lp6532
VQB
p6533
ag6529
aV86796
p6534
aV20
p6535
aV1000
p6536
aV5000
p6537
aF16.2
aV6
p6538
aI00
aI2
aVCoach's Decision
p6539
aVbreaking
p6540
aVinactive
p6541
asg16
V22038
p6542
sbsVJulio Jones
p6543
(i__main__
Player
p6544
(dp6545
g7
(lp6546
VWR
p6547
ag6543
aV86910
p6548
aV27
p6549
aV1000
p6550
aV8700
p6551
aF15.5
aV12
p6552
aI00
aI0
ag14
aVold
p6553
ag14
asg16
V14190
p6554
sbsVJonathan Stewart
p6555
(i__main__
Player
p6556
(dp6557
g7
(lp6558
VRB
p6559
ag6555
aV86790
p6560
aV25
p6561
aV53
p6562
aV6700
p6563
aF9.9
aV10
p6564
aI00
aI0
ag14
aVbreaking
p6565
ag14
asg16
V6733
p6566
sbsVShaun Hill
p6567
(i__main__
Player
p6568
(dp6569
g7
(lp6570
VQB
p6571
ag6567
aV86786
p6572
aV32
p6573
aV1000
p6574
aV6700
p6575
aF10.2
aV6
p6576
aI00
aI4
ag14
aVbreaking
p6577
ag14
asg16
V6844
p6578
sbsVFrank Summers
p6579
(i__main__
Player
p6580
(dp6581
g7
(lp6582
VRB
p6583
ag6579
aV86789
p6584
aV4
p6585
aV1000
p6586
aV4900
p6587
aF1.1
aV10
p6588
aI00
aI6
ag14
aVold
p6589
aVinactive
p6590
asg16
V6599
p6591
sbsVChris Givens
p6592
(i__main__
Player
p6593
(dp6594
g7
(lp6595
VWR
p6596
ag6592
aV86786
p6597
aV32
p6598
aV1000
p6599
aV4500
p6600
aF1.3
aV11
p6601
aI00
aI0
ag14
aVold
p6602
ag14
asg16
V22034
p6603
sbsVIndianapolis Colts
p6604
(i__main__
Player
p6605
(dp6606
g7
(lp6607
VD
p6608
ag6604
aV86793
p6609
aV10
p6610
aV1000
p6611
aV5200
p6612
aI0
aI0
aI00
aI4
ag14
aVnone
p6613
ag14
asg16
V12535
p6614
sbsVDwayne Bowe
p6615
(i__main__
Player
p6616
(dp6617
g7
(lp6618
VWR
p6619
ag6615
aV86794
p6620
aV16
p6621
aV32
p6622
aV5400
p6623
aF7.1
aV12
p6624
aI00
aI0
ag14
aVbreaking
p6625
ag14
asg16
V6488
p6626
sbsVArizona Cardinals
p6627
(i__main__
Player
p6628
(dp6629
g7
(lp6630
VD
p6631
ag6627
aV86786
p6632
aV29
p6633
aV1000
p6634
aV5100
p6635
aI0
aI0
aI00
aI4
ag14
aVnone
p6636
ag14
asg16
V12546
p6637
sbsVHouston Texans
p6638
(i__main__
Player
p6639
(dp6640
g7
(lp6641
VD
p6642
ag6638
aV86793
p6643
aV11
p6644
aV1000
p6645
aV5200
p6646
aI0
aI0
aI00
aI4
ag14
aVnone
p6647
ag14
asg16
V12556
p6648
sbsVBernard Pierce
p6649
(i__main__
Player
p6650
(dp6651
g7
(lp6652
VRB
p6653
ag6649
aV86788
p6654
aV6
p6655
aV1000
p6656
aV5200
p6657
aF4.5
aV10
p6658
aI00
aI0
ag14
aVold
p6659
ag14
asg16
V22029
p6660
sbsVDeAndre Hopkins
p6661
(i__main__
Player
p6662
(dp6663
g7
(lp6664
VWR
p6665
ag6661
aV86793
p6666
aV11
p6667
aV1000
p6668
aV7300
p6669
aF13.5
aV13
p6670
aI00
aI4
ag14
aVbreaking
p6671
ag14
asg16
V16606
p6672
sbsVAndy Dalton
p6673
(i__main__
Player
p6674
(dp6675
g7
(lp6676
VQB
p6677
ag6673
aV86791
p6678
aV8
p6679
aV1000
p6680
aV8200
p6681
aF15.7
aV13
p6682
aI00
aI4
ag14
aVbreaking
p6683
ag14
asg16
V14225
p6684
sbsVJerricho Cotchery
p6685
(i__main__
Player
p6686
(dp6687
g7
(lp6688
VWR
p6689
ag6685
aV86790
p6690
aV25
p6691
aV84
p6692
aV4800
p6693
aF5.5
aV12
p6694
aI00
aI4
ag14
aVold
p6695
ag14
asg16
V6688
p6696
sbsVLaMichael James
p6697
(i__main__
Player
p6698
(dp6699
g7
(lp6700
VRB
p6701
ag6697
aV86795
p6702
aV2
p6703
aV1000
p6704
aV4500
p6705
aF0.2
aV2
p6706
aI00
aI2
ag14
aVold
p6707
aVinactive
p6708
asg16
V22000
p6709
sbsVPatrick DiMarco
p6710
(i__main__
Player
p6711
(dp6712
g7
(lp6713
VRB
p6714
ag6710
aV86910
p6715
aV27
p6716
aV1000
p6717
aV4600
p6718
aF1.2
aV12
p6719
aI00
aI4
ag14
aVold
p6720
ag14
asg16
V14683
p6721
sbsVE.J. Manuel
p6722
(i__main__
Player
p6723
(dp6724
g7
(lp6725
VQB
p6726
ag6722
aV86789
p6727
aV4
p6728
aV1000
p6729
aV5000
p6730
aF12.3
aV5
p6731
aI00
aI0
ag14
aVold
p6732
ag14
asg16
V24949
p6733
sbsVGreg Salas
p6734
(i__main__
Player
p6735
(dp6736
g7
(lp6737
VWR
p6738
ag6734
aV86798
p6739
aV1
p6740
aV1000
p6741
aV4500
p6742
aF2.9
aV10
p6743
aI00
aI2
aVHamstring
p6744
aVrecent
p6745
aVIR
p6746
asg16
V14297
p6747
sbsVCarlos Hyde
p6748
(i__main__
Player
p6749
(dp6750
g7
(lp6751
VRB
p6752
ag6748
aV86799
p6753
aV30
p6754
aV1000
p6755
aV4900
p6756
aF4.8
aV13
p6757
aI00
aI2
aVShoulder
p6758
aVbreaking
p6759
aVprobable
p6760
asg16
V28473
p6761
sbsVSteven Hauschka
p6762
(i__main__
Player
p6763
(dp6764
g7
(lp6765
VK
p6766
ag6762
aV86799
p6767
aV31
p6768
aV1000
p6769
aV5200
p6770
aF9.8
aV13
p6771
aI00
aI4
ag14
aVold
p6772
ag14
asg16
V6724
p6773
sbsVOwen Daniels
p6774
(i__main__
Player
p6775
(dp6776
g7
(lp6777
VTE
p6778
ag6774
aV86788
p6779
aV6
p6780
aV72
p6781
aV5100
p6782
aF6.6
aV12
p6783
aI00
aI6
aVNot Injury Related
p6784
aVrecent
p6785
aVprobable
p6786
asg16
V6682
p6787
sbsVRandall Cobb
p6788
(i__main__
Player
p6789
(dp6790
g7
(lp6791
VWR
p6792
ag6788
aV86910
p6793
aV23
p6794
aV1000
p6795
aV8400
p6796
aF15.5
aV12
p6797
aI00
aI4
ag14
aVold
p6798
ag14
asg16
V14257
p6799
sbsVLatavius Murray
p6800
(i__main__
Player
p6801
(dp6802
g7
(lp6803
VRB
p6804
ag6800
aV86794
p6805
aV15
p6806
aV1000
p6807
aV6500
p6808
aF3.7
aV12
p6809
aI00
aI2
aVConcussion
p6810
aVbreaking
p6811
aVprobable
p6812
asg16
V34331
p6813
sbsVJohn Brown
p6814
(i__main__
Player
p6815
(dp6816
g7
(lp6817
VWR
p6818
ag6814
aV86786
p6819
aV29
p6820
aV1000
p6821
aV6400
p6822
aF8.1
aV13
p6823
aI00
aI0
ag14
aVrecent
p6824
ag14
asg16
V54606
p6825
sbsVDuJuan Harris
p6826
(i__main__
Player
p6827
(dp6828
g7
(lp6829
VRB
p6830
ag6826
aV86910
p6831
aV23
p6832
aV1000
p6833
aV4500
p6834
aF0.7
aV12
p6835
aI00
aI0
ag14
aVold
p6836
ag14
asg16
V14643
p6837
sbsVAnthony Dixon
p6838
(i__main__
Player
p6839
(dp6840
g7
(lp6841
VRB
p6842
ag6838
aV86789
p6843
aV4
p6844
aV1000
p6845
aV5000
p6846
aF3.8
aV13
p6847
aI00
aI0
ag14
aVold
p6848
ag14
asg16
V11594
p6849
sbsVBrian Hartline
p6850
(i__main__
Player
p6851
(dp6852
g7
(lp6853
VWR
p6854
ag6850
aV86795
p6855
aV2
p6856
aV1000
p6857
aV5200
p6858
aF5.2
aV13
p6859
aI00
aI2
aVKnee
p6860
aVbreaking
p6861
aVprobable
p6862
asg16
V6809
p6863
sbsVEric Ebron
p6864
(i__main__
Player
p6865
(dp6866
g7
(lp6867
VTE
p6868
ag6864
aV86792
p6869
aV24
p6870
aV1000
p6871
aV4900
p6872
aF3.7
aV10
p6873
aI00
aI0
ag14
aVbreaking
p6874
ag14
asg16
V25272
p6875
sbsVJordy Nelson
p6876
(i__main__
Player
p6877
(dp6878
g7
(lp6879
VWR
p6880
ag6876
aV86910
p6881
aV23
p6882
aV1000
p6883
aV8900
p6884
aF17.2
aV12
p6885
aI00
aI0
ag14
aVold
p6886
ag14
asg16
V6893
p6887
sbsVBlake Bortles
p6888
(i__main__
Player
p6889
(dp6890
g7
(lp6891
VQB
p6892
ag6888
aV86788
p6893
aV12
p6894
aV1000
p6895
aV6400
p6896
aF13.7
aV11
p6897
aI00
aI6
aVShoulder
p6898
aVbreaking
p6899
aVprobable
p6900
asg16
V34308
p6901
sbsVDelanie Walker
p6902
(i__main__
Player
p6903
(dp6904
g7
(lp6905
VTE
p6906
ag6902
aV86798
p6907
aV9
p6908
aV1000
p6909
aV5300
p6910
aF9.8
aV12
p6911
aI00
aI4
ag14
aVold
p6912
ag14
asg16
V6863
p6913
sbsVMarc Mariani
p6914
(i__main__
Player
p6915
(dp6916
g7
(lp6917
VWR
p6918
ag6914
aV86801
p6919
aV22
p6920
aV1000
p6921
aV4500
p6922
aF1.8
aV3
p6923
aI00
aI0
ag14
aVold
p6924
ag14
asg16
V11635
p6925
sbsVMike Wallace
p6926
(i__main__
Player
p6927
(dp6928
g7
(lp6929
VWR
p6930
ag6926
aV86795
p6931
aV2
p6932
aV1000
p6933
aV6700
p6934
aF10.8
aV13
p6935
aI00
aI2
aVChest
p6936
aVbreaking
p6937
aVprobable
p6938
asg16
V6607
p6939
sbsVCameron Brate
p6940
(i__main__
Player
p6941
(dp6942
g7
(lp6943
VTE
p6944
ag6940
aV86790
p6945
aV26
p6946
aV1000
p6947
aV4500
p6948
aF1.1
aV2
p6949
aI00
aI0
ag14
aVnone
p6950
ag14
asg16
V54782
p6951
sbsVJacquizz Rodgers
p6952
(i__main__
Player
p6953
(dp6954
g7
(lp6955
VRB
p6956
ag6952
aV86910
p6957
aV27
p6958
aV1000
p6959
aV4900
p6960
aI4
aV12
p6961
aI00
aI0
ag14
aVrecent
p6962
ag14
asg16
V14336
p6963
sbsVKerwynn Williams
p6964
(i__main__
Player
p6965
(dp6966
g7
(lp6967
VRB
p6968
ag6964
aV86786
p6969
aV29
p6970
aV1000
p6971
aV5300
p6972
aI5
aV2
p6973
aI00
aI0
ag14
aVbreaking
p6974
ag14
asg16
V39455
p6975
sbsVChris Owusu
p6976
(i__main__
Player
p6977
(dp6978
g7
(lp6979
VWR
p6980
ag6976
aV86798
p6981
aV1
p6982
aV1000
p6983
aV4500
p6984
aF2.3
aV5
p6985
aI00
aI0
ag14
aVrecent
p6986
ag14
asg16
V22762
p6987
sbsVKevin Ogletree
p6988
(i__main__
Player
p6989
(dp6990
g7
(lp6991
VWR
p6992
ag6988
aV86796
p6993
aV17
p6994
aV1000
p6995
aV4500
p6996
aF1.1
aV4
p6997
aI00
aI0
ag14
aVold
p6998
ag14
asg16
V7722
p6999
sbsVChase Coffman
p7000
(i__main__
Player
p7001
(dp7002
g7
(lp7003
VTE
p7004
ag7000
aV86798
p7005
aV9
p7006
aV1000
p7007
aV4500
p7008
aF1.4
aV10
p7009
aI00
aI0
ag14
aVold
p7010
ag14
asg16
V7706
p7011
sbsVBen Roethlisberger
p7012
(i__main__
Player
p7013
(dp7014
g7
(lp7015
VQB
p7016
ag7012
aV86787
p7017
aV5
p7018
aV81
p7019
aV8700
p7020
aF20.4
aV13
p7021
aI00
aI6
aVNot Injury Related
p7022
aVbreaking
p7023
aVprobable
p7024
asg16
V6589
p7025
sbsVMontee Ball
p7026
(i__main__
Player
p7027
(dp7028
g7
(lp7029
VRB
p7030
ag7026
aV86797
p7031
aV13
p7032
aV1000
p7033
aV5000
p7034
aF6.4
aV5
p7035
aI00
aI2
aVGroin
p7036
aVrecent
p7037
aVinactive
p7038
asg16
V28860
p7039
sbsVRobert Hughes
p7040
(i__main__
Player
p7041
(dp7042
g7
(lp7043
VRB
p7044
ag7040
aV86786
p7045
aV29
p7046
aV1000
p7047
aV4600
p7048
aF1.3
aV13
p7049
aI00
aI0
ag14
aVrecent
p7050
ag14
asg16
V14603
p7051
sbsVDevonta Freeman
p7052
(i__main__
Player
p7053
(dp7054
g7
(lp7055
VRB
p7056
ag7052
aV86910
p7057
aV27
p7058
aV1000
p7059
aV4800
p7060
aI4
aV12
p7061
aI00
aI0
ag14
aVold
p7062
ag14
asg16
V24920
p7063
sbsVAlfred Blue
p7064
(i__main__
Player
p7065
(dp7066
g7
(lp7067
VRB
p7068
ag7064
aV86793
p7069
aV11
p7070
aV1000
p7071
aV5400
p7072
aF5.4
aV13
p7073
aI00
aI0
ag14
aVbreaking
p7074
ag14
asg16
V31406
p7075
sbsVMichael Campanaro
p7076
(i__main__
Player
p7077
(dp7078
g7
(lp7079
VWR
p7080
ag7076
aV86788
p7081
aV6
p7082
aV1000
p7083
aV4500
p7084
aF5.8
aV3
p7085
aI00
aI2
aVThigh
p7086
aVbreaking
p7087
aVinactive
p7088
asg16
V25561
p7089
sbsVAndrew Luck
p7090
(i__main__
Player
p7091
(dp7092
g7
(lp7093
VQB
p7094
ag7090
aV86793
p7095
aV10
p7096
aV1000
p7097
aV10100
p7098
aF25.7
aV13
p7099
aI00
aI4
ag14
aVbreaking
p7100
ag14
asg16
V21939
p7101
sbsVMatt Forte
p7102
(i__main__
Player
p7103
(dp7104
g7
(lp7105
VRB
p7106
ag7102
aV86801
p7107
aV22
p7108
aV4
p7109
aV9000
p7110
aF19.6
aV13
p7111
aI00
aI4
ag14
aVrecent
p7112
ag14
asg16
V6899
p7113
sbsVMatt Asiata
p7114
(i__main__
Player
p7115
(dp7116
g7
(lp7117
VRB
p7118
ag7114
aV86792
p7119
aV21
p7120
aV1000
p7121
aV5800
p7122
aF9.9
aV12
p7123
aI00
aI0
ag14
aVbreaking
p7124
ag14
asg16
V14757
p7125
sbsVJerome Felton
p7126
(i__main__
Player
p7127
(dp7128
g7
(lp7129
VRB
p7130
ag7126
aV86792
p7131
aV21
p7132
aV1000
p7133
aV4600
p7134
aF0.6
aV13
p7135
aI00
aI4
ag14
aVold
p7136
ag14
asg16
V6653
p7137
sbsVRyan Griffin
p7138
(i__main__
Player
p7139
(dp7140
g7
(lp7141
VTE
p7142
ag7138
aV86793
p7143
aV11
p7144
aV1000
p7145
aV4600
p7146
aI1
aV13
p7147
aI00
aI0
ag14
aVrecent
p7148
ag14
asg16
V34073
p7149
sbsVSantana Moss
p7150
(i__main__
Player
p7151
(dp7152
g7
(lp7153
VWR
p7154
ag7150
aV86796
p7155
aV20
p7156
aV73
p7157
aV4500
p7158
aF1.8
aV7
p7159
aI00
aI0
ag14
aVold
p7160
ag14
asg16
V6879
p7161
sbsVMatt Barkley
p7162
(i__main__
Player
p7163
(dp7164
g7
(lp7165
VQB
p7166
ag7162
aV86800
p7167
aV19
p7168
aV1000
p7169
aV5000
p7170
aI0
aV2
p7171
aI00
aI0
ag14
aVold
p7172
ag14
asg16
V29605
p7173
sbsVNiles Paul
p7174
(i__main__
Player
p7175
(dp7176
g7
(lp7177
VTE
p7178
ag7174
aV86796
p7179
aV20
p7180
aV1000
p7181
aV4500
p7182
aF5.3
aV13
p7183
aI00
aI0
ag14
aVold
p7184
ag14
asg16
V14355
p7185
sbsVAllen Hurns
p7186
(i__main__
Player
p7187
(dp7188
g7
(lp7189
VWR
p7190
ag7186
aV86788
p7191
aV12
p7192
aV1000
p7193
aV5600
p7194
aF8.7
aV13
p7195
aI00
aI4
ag14
aVbreaking
p7196
ag14
asg16
V25760
p7197
sbsVCarolina Panthers
p7198
(i__main__
Player
p7199
(dp7200
g7
(lp7201
VD
p7202
ag7198
aV86790
p7203
aV25
p7204
aV1000
p7205
aV4800
p7206
aI0
aI0
aI00
aI4
ag14
aVnone
p7207
ag14
asg16
V12553
p7208
sbsVJoe Flacco
p7209
(i__main__
Player
p7210
(dp7211
g7
(lp7212
VQB
p7213
ag7209
aV86788
p7214
aV6
p7215
aV147
p7216
aV8100
p7217
aF17.5
aV13
p7218
aI00
aI4
ag14
aVbreaking
p7219
ag14
asg16
V6714
p7220
sbsVJustin Brown
p7221
(i__main__
Player
p7222
(dp7223
g7
(lp7224
VWR
p7225
ag7221
aV86787
p7226
aV5
p7227
aV1000
p7228
aV4500
p7229
aF1.7
aV8
p7230
aI00
aI2
ag14
aVold
p7231
aVinactive
p7232
asg16
V27404
p7233
sbsVDarrius Heyward-Bey
p7234
(i__main__
Player
p7235
(dp7236
g7
(lp7237
VWR
p7238
ag7234
aV86787
p7239
aV5
p7240
aV1000
p7241
aV4500
p7242
aF0.2
aV13
p7243
aI00
aI0
ag14
aVold
p7244
ag14
asg16
V7784
p7245
sbsVSteven Jackson
p7246
(i__main__
Player
p7247
(dp7248
g7
(lp7249
VRB
p7250
ag7246
aV86910
p7251
aV27
p7252
aV5
p7253
aV6600
p7254
aI9
aV12
p7255
aI00
aI0
ag14
aVold
p7256
ag14
asg16
V6838
p7257
sbsVLonnie Pryor
p7258
(i__main__
Player
p7259
(dp7260
g7
(lp7261
VRB
p7262
ag7258
aV86790
p7263
aV26
p7264
aV1000
p7265
aV4500
p7266
aI0
aI0
aI00
aI0
ag14
aVold
p7267
ag14
asg16
V24952
p7268
sbsVJames Develin
p7269
(i__main__
Player
p7270
(dp7271
g7
(lp7272
VRB
p7273
ag7269
aV86795
p7274
aV3
p7275
aV1000
p7276
aV4500
p7277
aF0.6
aV13
p7278
aI00
aI0
ag14
aVold
p7279
ag14
asg16
V12872
p7280
sbsVJamize Olawale
p7281
(i__main__
Player
p7282
(dp7283
g7
(lp7284
VRB
p7285
ag7281
aV86794
p7286
aV15
p7287
aV1000
p7288
aV4500
p7289
aF0.2
aV13
p7290
aI00
aI0
ag14
aVnone
p7291
ag14
asg16
V23046
p7292
sbssb.